0000 A0 01     LDY #$01      |00 00 01 FF|000100|2
0002 8C FF 0F  STY $0FFF     |00 00 01 FF|000100|4
0005 A9 00     LDA #$00      |00 00 01 FF|000110|2
0007 8D 06 0F  STA $0F06     |00 00 01 FF|000110|4
000A 8D 09 0F  STA $0F09     |00 00 01 FF|000110|4
000D AD 09 0F  LDA $0F09     |00 00 01 FF|000110|4
0010 29 0F     AND #$0F      |00 00 01 FF|000110|2
0012 8D 0A 0F  STA $0F0A     |00 00 01 FF|000110|4
0015 AD 09 0F  LDA $0F09     |00 00 01 FF|000110|4
0018 29 F0     AND #$F0      |00 00 01 FF|000110|2
001A 8D 0E 0F  STA $0F0E     |00 00 01 FF|000110|4
001D 09 0F     ORA #$0F      |0F 00 01 FF|000100|2
001F 8D 0F 0F  STA $0F0F     |0F 00 01 FF|000100|4
0022 AD 06 0F  LDA $0F06     |00 00 01 FF|000110|4
0025 29 0F     AND #$0F      |00 00 01 FF|000110|2
0027 8D 08 0F  STA $0F08     |00 00 01 FF|000110|4
002A AD 06 0F  LDA $0F06     |00 00 01 FF|000110|4
002D 29 F0     AND #$F0      |00 00 01 FF|000110|2
002F 8D 07 0F  STA $0F07     |00 00 01 FF|000110|4
0032 20 5B 00  JSR $005B     |00 00 01 FD|000110|6
005B F8        SED           |00 00 01 FD|001110|2
005C C0 01     CPY #$01      |00 00 01 FD|001111|2
005E AD 06 0F  LDA $0F06     |00 00 01 FD|001111|4
0061 6D 09 0F  ADC $0F09     |01 00 01 FD|001100|4
0064 8D 02 0F  STA $0F02     |01 00 01 FD|001100|4
0067 08        PHP           |01 00 01 FC|001100|3
0068 68        PLA           |3C 00 01 FD|001100|4
0069 8D 03 0F  STA $0F03     |3C 00 01 FD|001100|4
006C D8        CLD           |3C 00 01 FD|000100|2
006D C0 01     CPY #$01      |3C 00 01 FD|000111|2
006F AD 06 0F  LDA $0F06     |00 00 01 FD|000111|4
0072 6D 09 0F  ADC $0F09     |01 00 01 FD|000100|4
0075 8D 04 0F  STA $0F04     |01 00 01 FD|000100|4
0078 08        PHP           |01 00 01 FC|000100|3
0079 68        PLA           |34 00 01 FD|000100|4
007A 8D 05 0F  STA $0F05     |34 00 01 FD|000100|4
007D C0 01     CPY #$01      |34 00 01 FD|000111|2
007F AD 08 0F  LDA $0F08     |00 00 01 FD|000111|4
0082 6D 0A 0F  ADC $0F0A     |01 00 01 FD|000100|4
0085 C9 0A     CMP #$0A      |01 00 01 FD|100100|2
0087 A2 00     LDX #$00      |01 00 01 FD|000110|2
0089 90 06     BCC $0091     |01 00 01 FD|000110|3
0091 0D 07 0F  ORA $0F07     |01 00 01 FD|000100|4
0094 7D 0E 0F  ADC $0F0E,X   |01 00 01 FD|000100|4
0097 08        PHP           |01 00 01 FC|000100|3
0098 B0 04     BCS $009E     |01 00 01 FC|000100|2
009A C9 A0     CMP #$A0      |01 00 01 FC|000100|2
009C 90 03     BCC $00A1     |01 00 01 FC|000100|3
00A1 8D 00 0F  STA $0F00     |01 00 01 FC|000100|4
00A4 08        PHP           |01 00 01 FB|000100|3
00A5 68        PLA           |34 00 01 FC|000100|4
00A6 8D 01 0F  STA $0F01     |34 00 01 FC|000100|4
00A9 68        PLA           |34 00 01 FD|000100|4
00AA 8D 0C 0F  STA $0F0C     |34 00 01 FD|000100|4
00AD 60        RTS           |34 00 01 FF|000100|6
0035 20 44 01  JSR $0144     |34 00 01 FD|000100|6
0144 AD 0C 0F  LDA $0F0C     |34 00 01 FD|000100|4
0147 8D 0B 0F  STA $0F0B     |34 00 01 FD|000100|4
014A AD 05 0F  LDA $0F05     |34 00 01 FD|000100|4
014D 8D 0D 0F  STA $0F0D     |34 00 01 FD|000100|4
0150 60        RTS           |34 00 01 FF|000100|6
0038 20 15 01  JSR $0115     |34 00 01 FD|000100|6
0115 AD 02 0F  LDA $0F02     |01 00 01 FD|000100|4
0118 CD 00 0F  CMP $0F00     |01 00 01 FD|000111|4
011B D0 26     BNE $0143     |01 00 01 FD|000111|2
011D AD 03 0F  LDA $0F03     |3C 00 01 FD|000101|4
0120 4D 0B 0F  EOR $0F0B     |08 00 01 FD|000101|4
0123 29 80     AND #$80      |00 00 01 FD|000111|2
0125 D0 1C     BNE $0143     |00 00 01 FD|000111|2
0127 AD 03 0F  LDA $0F03     |3C 00 01 FD|000101|4
012A 4D 0C 0F  EOR $0F0C     |08 00 01 FD|000101|4
012D 29 40     AND #$40      |00 00 01 FD|000111|2
012F D0 12     BNE $0143     |00 00 01 FD|000111|2
0131 AD 03 0F  LDA $0F03     |3C 00 01 FD|000101|4
0134 4D 0D 0F  EOR $0F0D     |08 00 01 FD|000101|4
0137 29 02     AND #$02      |00 00 01 FD|000111|2
0139 D0 08     BNE $0143     |00 00 01 FD|000111|2
013B AD 03 0F  LDA $0F03     |3C 00 01 FD|000101|4
013E 4D 01 0F  EOR $0F01     |08 00 01 FD|000101|4
0141 29 01     AND #$01      |00 00 01 FD|000111|2
0143 60        RTS           |00 00 01 FF|000111|6
003B D0 1D     BNE $005A     |00 00 01 FF|000111|2
003D 20 AE 00  JSR $00AE     |00 00 01 FD|000111|6
00AE F8        SED           |00 00 01 FD|001111|2
00AF C0 01     CPY #$01      |00 00 01 FD|001111|2
00B1 AD 06 0F  LDA $0F06     |00 00 01 FD|001111|4
00B4 ED 09 0F  SBC $0F09     |00 00 01 FD|001111|4
00B7 8D 02 0F  STA $0F02     |00 00 01 FD|001111|4
00BA 08        PHP           |00 00 01 FC|001111|3
00BB 68        PLA           |3F 00 01 FD|001101|4
00BC 8D 03 0F  STA $0F03     |3F 00 01 FD|001101|4
00BF D8        CLD           |3F 00 01 FD|000101|2
00C0 C0 01     CPY #$01      |3F 00 01 FD|000111|2
00C2 AD 06 0F  LDA $0F06     |00 00 01 FD|000111|4
00C5 ED 09 0F  SBC $0F09     |00 00 01 FD|000111|4
00C8 8D 04 0F  STA $0F04     |00 00 01 FD|000111|4
00CB 08        PHP           |00 00 01 FC|000111|3
00CC 68        PLA           |37 00 01 FD|000101|4
00CD 8D 05 0F  STA $0F05     |37 00 01 FD|000101|4
00D0 60        RTS           |37 00 01 FF|000101|6
0040 20 51 01  JSR $0151     |37 00 01 FD|000101|6
0151 20 D1 00  JSR $00D1     |37 00 01 FB|000101|6
00D1 C0 01     CPY #$01      |37 00 01 FB|000111|2
00D3 AD 08 0F  LDA $0F08     |00 00 01 FB|000111|4
00D6 ED 0A 0F  SBC $0F0A     |00 00 01 FB|000111|4
00D9 A2 00     LDX #$00      |00 00 01 FB|000111|2
00DB B0 06     BCS $00E3     |00 00 01 FB|000111|3
00E3 0D 07 0F  ORA $0F07     |00 00 01 FB|000111|4
00E6 FD 0E 0F  SBC $0F0E,X   |00 00 01 FB|000111|4
00E9 B0 02     BCS $00ED     |00 00 01 FB|000111|3
00ED 8D 00 0F  STA $0F00     |00 00 01 FB|000111|4
00F0 60        RTS           |00 00 01 FD|000111|6
0154 AD 05 0F  LDA $0F05     |37 00 01 FD|000101|4
0157 8D 0B 0F  STA $0F0B     |37 00 01 FD|000101|4
015A 8D 0C 0F  STA $0F0C     |37 00 01 FD|000101|4
015D 8D 0D 0F  STA $0F0D     |37 00 01 FD|000101|4
0160 8D 01 0F  STA $0F01     |37 00 01 FD|000101|4
0163 60        RTS           |37 00 01 FF|000101|6
0043 20 15 01  JSR $0115     |37 00 01 FD|000101|6
0115 AD 02 0F  LDA $0F02     |00 00 01 FD|000111|4
0118 CD 00 0F  CMP $0F00     |00 00 01 FD|000111|4
011B D0 26     BNE $0143     |00 00 01 FD|000111|2
011D AD 03 0F  LDA $0F03     |3F 00 01 FD|000101|4
0120 4D 0B 0F  EOR $0F0B     |08 00 01 FD|000101|4
0123 29 80     AND #$80      |00 00 01 FD|000111|2
0125 D0 1C     BNE $0143     |00 00 01 FD|000111|2
0127 AD 03 0F  LDA $0F03     |3F 00 01 FD|000101|4
012A 4D 0C 0F  EOR $0F0C     |08 00 01 FD|000101|4
012D 29 40     AND #$40      |00 00 01 FD|000111|2
012F D0 12     BNE $0143     |00 00 01 FD|000111|2
0131 AD 03 0F  LDA $0F03     |3F 00 01 FD|000101|4
0134 4D 0D 0F  EOR $0F0D     |08 00 01 FD|000101|4
0137 29 02     AND #$02      |00 00 01 FD|000111|2
0139 D0 08     BNE $0143     |00 00 01 FD|000111|2
013B AD 03 0F  LDA $0F03     |3F 00 01 FD|000101|4
013E 4D 01 0F  EOR $0F01     |08 00 01 FD|000101|4
0141 29 01     AND #$01      |00 00 01 FD|000111|2
0143 60        RTS           |00 00 01 FF|000111|6
0046 D0 12     BNE $005A     |00 00 01 FF|000111|2
0048 EE 06 0F  INC $0F06     |00 00 01 FF|000101|6
004B D0 D5     BNE $0022     |00 00 01 FF|000101|3
0022 AD 06 0F  LDA $0F06     |01 00 01 FF|000101|4
0025 29 0F     AND #$0F      |01 00 01 FF|000101|2
0027 8D 08 0F  STA $0F08     |01 00 01 FF|000101|4
002A AD 06 0F  LDA $0F06     |01 00 01 FF|000101|4
002D 29 F0     AND #$F0      |00 00 01 FF|000111|2
002F 8D 07 0F  STA $0F07     |00 00 01 FF|000111|4
0032 20 5B 00  JSR $005B     |00 00 01 FD|000111|6
005B F8        SED           |00 00 01 FD|001111|2
005C C0 01     CPY #$01      |00 00 01 FD|001111|2
005E AD 06 0F  LDA $0F06     |01 00 01 FD|001101|4
0061 6D 09 0F  ADC $0F09     |02 00 01 FD|001100|4
0064 8D 02 0F  STA $0F02     |02 00 01 FD|001100|4
0067 08        PHP           |02 00 01 FC|001100|3
0068 68        PLA           |3C 00 01 FD|001100|4
0069 8D 03 0F  STA $0F03     |3C 00 01 FD|001100|4
006C D8        CLD           |3C 00 01 FD|000100|2
006D C0 01     CPY #$01      |3C 00 01 FD|000111|2
006F AD 06 0F  LDA $0F06     |01 00 01 FD|000101|4
0072 6D 09 0F  ADC $0F09     |02 00 01 FD|000100|4
0075 8D 04 0F  STA $0F04     |02 00 01 FD|000100|4
0078 08        PHP           |02 00 01 FC|000100|3
0079 68        PLA           |34 00 01 FD|000100|4
007A 8D 05 0F  STA $0F05     |34 00 01 FD|000100|4
007D C0 01     CPY #$01      |34 00 01 FD|000111|2
007F AD 08 0F  LDA $0F08     |01 00 01 FD|000101|4
0082 6D 0A 0F  ADC $0F0A     |02 00 01 FD|000100|4
0085 C9 0A     CMP #$0A      |02 00 01 FD|100100|2
0087 A2 00     LDX #$00      |02 00 01 FD|000110|2
0089 90 06     BCC $0091     |02 00 01 FD|000110|3
0091 0D 07 0F  ORA $0F07     |02 00 01 FD|000100|4
0094 7D 0E 0F  ADC $0F0E,X   |02 00 01 FD|000100|4
0097 08        PHP           |02 00 01 FC|000100|3
0098 B0 04     BCS $009E     |02 00 01 FC|000100|2
009A C9 A0     CMP #$A0      |02 00 01 FC|000100|2
009C 90 03     BCC $00A1     |02 00 01 FC|000100|3
00A1 8D 00 0F  STA $0F00     |02 00 01 FC|000100|4
00A4 08        PHP           |02 00 01 FB|000100|3
00A5 68        PLA           |34 00 01 FC|000100|4
00A6 8D 01 0F  STA $0F01     |34 00 01 FC|000100|4
00A9 68        PLA           |34 00 01 FD|000100|4
00AA 8D 0C 0F  STA $0F0C     |34 00 01 FD|000100|4
00AD 60        RTS           |34 00 01 FF|000100|6
0035 20 44 01  JSR $0144     |34 00 01 FD|000100|6
0144 AD 0C 0F  LDA $0F0C     |34 00 01 FD|000100|4
0147 8D 0B 0F  STA $0F0B     |34 00 01 FD|000100|4
014A AD 05 0F  LDA $0F05     |34 00 01 FD|000100|4
014D 8D 0D 0F  STA $0F0D     |34 00 01 FD|000100|4
0150 60        RTS           |34 00 01 FF|000100|6
0038 20 15 01  JSR $0115     |34 00 01 FD|000100|6
0115 AD 02 0F  LDA $0F02     |02 00 01 FD|000100|4
0118 CD 00 0F  CMP $0F00     |02 00 01 FD|000111|4
011B D0 26     BNE $0143     |02 00 01 FD|000111|2
011D AD 03 0F  LDA $0F03     |3C 00 01 FD|000101|4
0120 4D 0B 0F  EOR $0F0B     |08 00 01 FD|000101|4
0123 29 80     AND #$80      |00 00 01 FD|000111|2
0125 D0 1C     BNE $0143     |00 00 01 FD|000111|2
0127 AD 03 0F  LDA $0F03     |3C 00 01 FD|000101|4
012A 4D 0C 0F  EOR $0F0C     |08 00 01 FD|000101|4
012D 29 40     AND #$40      |00 00 01 FD|000111|2
012F D0 12     BNE $0143     |00 00 01 FD|000111|2
0131 AD 03 0F  LDA $0F03     |3C 00 01 FD|000101|4
0134 4D 0D 0F  EOR $0F0D     |08 00 01 FD|000101|4
0137 29 02     AND #$02      |00 00 01 FD|000111|2
0139 D0 08     BNE $0143     |00 00 01 FD|000111|2
013B AD 03 0F  LDA $0F03     |3C 00 01 FD|000101|4
013E 4D 01 0F  EOR $0F01     |08 00 01 FD|000101|4
0141 29 01     AND #$01      |00 00 01 FD|000111|2
0143 60        RTS           |00 00 01 FF|000111|6
003B D0 1D     BNE $005A     |00 00 01 FF|000111|2
003D 20 AE 00  JSR $00AE     |00 00 01 FD|000111|6
00AE F8        SED           |00 00 01 FD|001111|2
00AF C0 01     CPY #$01      |00 00 01 FD|001111|2
00B1 AD 06 0F  LDA $0F06     |01 00 01 FD|001101|4
00B4 ED 09 0F  SBC $0F09     |01 00 01 FD|001101|4
00B7 8D 02 0F  STA $0F02     |01 00 01 FD|001101|4
00BA 08        PHP           |01 00 01 FC|001101|3
00BB 68        PLA           |3D 00 01 FD|001101|4
00BC 8D 03 0F  STA $0F03     |3D 00 01 FD|001101|4
00BF D8        CLD           |3D 00 01 FD|000101|2
00C0 C0 01     CPY #$01      |3D 00 01 FD|000111|2
00C2 AD 06 0F  LDA $0F06     |01 00 01 FD|000101|4
00C5 ED 09 0F  SBC $0F09     |01 00 01 FD|000101|4
00C8 8D 04 0F  STA $0F04     |01 00 01 FD|000101|4
00CB 08        PHP           |01 00 01 FC|000101|3
00CC 68        PLA           |35 00 01 FD|000101|4
00CD 8D 05 0F  STA $0F05     |35 00 01 FD|000101|4
00D0 60        RTS           |35 00 01 FF|000101|6
0040 20 51 01  JSR $0151     |35 00 01 FD|000101|6
0151 20 D1 00  JSR $00D1     |35 00 01 FB|000101|6
00D1 C0 01     CPY #$01      |35 00 01 FB|000111|2
00D3 AD 08 0F  LDA $0F08     |01 00 01 FB|000101|4
00D6 ED 0A 0F  SBC $0F0A     |01 00 01 FB|000101|4
00D9 A2 00     LDX #$00      |01 00 01 FB|000111|2
00DB B0 06     BCS $00E3     |01 00 01 FB|000111|3
00E3 0D 07 0F  ORA $0F07     |01 00 01 FB|000101|4
00E6 FD 0E 0F  SBC $0F0E,X   |01 00 01 FB|000101|4
00E9 B0 02     BCS $00ED     |01 00 01 FB|000101|3
00ED 8D 00 0F  STA $0F00     |01 00 01 FB|000101|4
00F0 60        RTS           |01 00 01 FD|000101|6
0154 AD 05 0F  LDA $0F05     |35 00 01 FD|000101|4
0157 8D 0B 0F  STA $0F0B     |35 00 01 FD|000101|4
015A 8D 0C 0F  STA $0F0C     |35 00 01 FD|000101|4
015D 8D 0D 0F  STA $0F0D     |35 00 01 FD|000101|4
0160 8D 01 0F  STA $0F01     |35 00 01 FD|000101|4
0163 60        RTS           |35 00 01 FF|000101|6
0043 20 15 01  JSR $0115     |35 00 01 FD|000101|6
0115 AD 02 0F  LDA $0F02     |01 00 01 FD|000101|4
0118 CD 00 0F  CMP $0F00     |01 00 01 FD|000111|4
011B D0 26     BNE $0143     |01 00 01 FD|000111|2
011D AD 03 0F  LDA $0F03     |3D 00 01 FD|000101|4
0120 4D 0B 0F  EOR $0F0B     |08 00 01 FD|000101|4
0123 29 80     AND #$80      |00 00 01 FD|000111|2
0125 D0 1C     BNE $0143     |00 00 01 FD|000111|2
0127 AD 03 0F  LDA $0F03     |3D 00 01 FD|000101|4
012A 4D 0C 0F  EOR $0F0C     |08 00 01 FD|000101|4
012D 29 40     AND #$40      |00 00 01 FD|000111|2
012F D0 12     BNE $0143     |00 00 01 FD|000111|2
0131 AD 03 0F  LDA $0F03     |3D 00 01 FD|000101|4
0134 4D 0D 0F  EOR $0F0D     |08 00 01 FD|000101|4
0137 29 02     AND #$02      |00 00 01 FD|000111|2
0139 D0 08     BNE $0143     |00 00 01 FD|000111|2
013B AD 03 0F  LDA $0F03     |3D 00 01 FD|000101|4
013E 4D 01 0F  EOR $0F01     |08 00 01 FD|000101|4
0141 29 01     AND #$01      |00 00 01 FD|000111|2
0143 60        RTS           |00 00 01 FF|000111|6
0046 D0 12     BNE $005A     |00 00 01 FF|000111|2
0048 EE 06 0F  INC $0F06     |00 00 01 FF|000101|6
004B D0 D5     BNE $0022     |00 00 01 FF|000101|3
0022 AD 06 0F  LDA $0F06     |02 00 01 FF|000101|4
0025 29 0F     AND #$0F      |02 00 01 FF|000101|2
0027 8D 08 0F  STA $0F08     |02 00 01 FF|000101|4
002A AD 06 0F  LDA $0F06     |02 00 01 FF|000101|4
002D 29 F0     AND #$F0      |00 00 01 FF|000111|2
002F 8D 07 0F  STA $0F07     |00 00 01 FF|000111|4
0032 20 5B 00  JSR $005B     |00 00 01 FD|000111|6
005B F8        SED           |00 00 01 FD|001111|2
005C C0 01     CPY #$01      |00 00 01 FD|001111|2
005E AD 06 0F  LDA $0F06     |02 00 01 FD|001101|4
0061 6D 09 0F  ADC $0F09     |03 00 01 FD|001100|4
0064 8D 02 0F  STA $0F02     |03 00 01 FD|001100|4
0067 08        PHP           |03 00 01 FC|001100|3
0068 68        PLA           |3C 00 01 FD|001100|4
0069 8D 03 0F  STA $0F03     |3C 00 01 FD|001100|4
006C D8        CLD           |3C 00 01 FD|000100|2
006D C0 01     CPY #$01      |3C 00 01 FD|000111|2
006F AD 06 0F  LDA $0F06     |02 00 01 FD|000101|4
0072 6D 09 0F  ADC $0F09     |03 00 01 FD|000100|4
0075 8D 04 0F  STA $0F04     |03 00 01 FD|000100|4
0078 08        PHP           |03 00 01 FC|000100|3
0079 68        PLA           |34 00 01 FD|000100|4
007A 8D 05 0F  STA $0F05     |34 00 01 FD|000100|4
007D C0 01     CPY #$01      |34 00 01 FD|000111|2
007F AD 08 0F  LDA $0F08     |02 00 01 FD|000101|4
0082 6D 0A 0F  ADC $0F0A     |03 00 01 FD|000100|4
0085 C9 0A     CMP #$0A      |03 00 01 FD|100100|2
0087 A2 00     LDX #$00      |03 00 01 FD|000110|2
0089 90 06     BCC $0091     |03 00 01 FD|000110|3
0091 0D 07 0F  ORA $0F07     |03 00 01 FD|000100|4
0094 7D 0E 0F  ADC $0F0E,X   |03 00 01 FD|000100|4
0097 08        PHP           |03 00 01 FC|000100|3
0098 B0 04     BCS $009E     |03 00 01 FC|000100|2
009A C9 A0     CMP #$A0      |03 00 01 FC|000100|2
009C 90 03     BCC $00A1     |03 00 01 FC|000100|3
00A1 8D 00 0F  STA $0F00     |03 00 01 FC|000100|4
00A4 08        PHP           |03 00 01 FB|000100|3
00A5 68        PLA           |34 00 01 FC|000100|4
00A6 8D 01 0F  STA $0F01     |34 00 01 FC|000100|4
00A9 68        PLA           |34 00 01 FD|000100|4
00AA 8D 0C 0F  STA $0F0C     |34 00 01 FD|000100|4
00AD 60        RTS           |34 00 01 FF|000100|6
0035 20 44 01  JSR $0144     |34 00 01 FD|000100|6
0144 AD 0C 0F  LDA $0F0C     |34 00 01 FD|000100|4
0147 8D 0B 0F  STA $0F0B     |34 00 01 FD|000100|4
014A AD 05 0F  LDA $0F05     |34 00 01 FD|000100|4
014D 8D 0D 0F  STA $0F0D     |34 00 01 FD|000100|4
0150 60        RTS           |34 00 01 FF|000100|6
0038 20 15 01  JSR $0115     |34 00 01 FD|000100|6
0115 AD 02 0F  LDA $0F02     |03 00 01 FD|000100|4
0118 CD 00 0F  CMP $0F00     |03 00 01 FD|000111|4
011B D0 26     BNE $0143     |03 00 01 FD|000111|2
011D AD 03 0F  LDA $0F03     |3C 00 01 FD|000101|4
0120 4D 0B 0F  EOR $0F0B     |08 00 01 FD|000101|4
0123 29 80     AND #$80      |00 00 01 FD|000111|2
0125 D0 1C     BNE $0143     |00 00 01 FD|000111|2
0127 AD 03 0F  LDA $0F03     |3C 00 01 FD|000101|4
012A 4D 0C 0F  EOR $0F0C     |08 00 01 FD|000101|4
012D 29 40     AND #$40      |00 00 01 FD|000111|2
012F D0 12     BNE $0143     |00 00 01 FD|000111|2
0131 AD 03 0F  LDA $0F03     |3C 00 01 FD|000101|4
0134 4D 0D 0F  EOR $0F0D     |08 00 01 FD|000101|4
0137 29 02     AND #$02      |00 00 01 FD|000111|2
0139 D0 08     BNE $0143     |00 00 01 FD|000111|2
013B AD 03 0F  LDA $0F03     |3C 00 01 FD|000101|4
013E 4D 01 0F  EOR $0F01     |08 00 01 FD|000101|4
0141 29 01     AND #$01      |00 00 01 FD|000111|2
0143 60        RTS           |00 00 01 FF|000111|6
003B D0 1D     BNE $005A     |00 00 01 FF|000111|2
003D 20 AE 00  JSR $00AE     |00 00 01 FD|000111|6
00AE F8        SED           |00 00 01 FD|001111|2
00AF C0 01     CPY #$01      |00 00 01 FD|001111|2
00B1 AD 06 0F  LDA $0F06     |02 00 01 FD|001101|4
00B4 ED 09 0F  SBC $0F09     |02 00 01 FD|001101|4
00B7 8D 02 0F  STA $0F02     |02 00 01 FD|001101|4
00BA 08        PHP           |02 00 01 FC|001101|3
00BB 68        PLA           |3D 00 01 FD|001101|4
00BC 8D 03 0F  STA $0F03     |3D 00 01 FD|001101|4
00BF D8        CLD           |3D 00 01 FD|000101|2
00C0 C0 01     CPY #$01      |3D 00 01 FD|000111|2
00C2 AD 06 0F  LDA $0F06     |02 00 01 FD|000101|4
00C5 ED 09 0F  SBC $0F09     |02 00 01 FD|000101|4
00C8 8D 04 0F  STA $0F04     |02 00 01 FD|000101|4
00CB 08        PHP           |02 00 01 FC|000101|3
00CC 68        PLA           |35 00 01 FD|000101|4
00CD 8D 05 0F  STA $0F05     |35 00 01 FD|000101|4
00D0 60        RTS           |35 00 01 FF|000101|6
0040 20 51 01  JSR $0151     |35 00 01 FD|000101|6
0151 20 D1 00  JSR $00D1     |35 00 01 FB|000101|6
00D1 C0 01     CPY #$01      |35 00 01 FB|000111|2
00D3 AD 08 0F  LDA $0F08     |02 00 01 FB|000101|4
00D6 ED 0A 0F  SBC $0F0A     |02 00 01 FB|000101|4
00D9 A2 00     LDX #$00      |02 00 01 FB|000111|2
00DB B0 06     BCS $00E3     |02 00 01 FB|000111|3
00E3 0D 07 0F  ORA $0F07     |02 00 01 FB|000101|4
00E6 FD 0E 0F  SBC $0F0E,X   |02 00 01 FB|000101|4
00E9 B0 02     BCS $00ED     |02 00 01 FB|000101|3
00ED 8D 00 0F  STA $0F00     |02 00 01 FB|000101|4
00F0 60        RTS           |02 00 01 FD|000101|6
0154 AD 05 0F  LDA $0F05     |35 00 01 FD|000101|4
0157 8D 0B 0F  STA $0F0B     |35 00 01 FD|000101|4
015A 8D 0C 0F  STA $0F0C     |35 00 01 FD|000101|4
015D 8D 0D 0F  STA $0F0D     |35 00 01 FD|000101|4
0160 8D 01 0F  STA $0F01     |35 00 01 FD|000101|4
0163 60        RTS           |35 00 01 FF|000101|6
0043 20 15 01  JSR $0115     |35 00 01 FD|000101|6
0115 AD 02 0F  LDA $0F02     |02 00 01 FD|000101|4
0118 CD 00 0F  CMP $0F00     |02 00 01 FD|000111|4
011B D0 26     BNE $0143     |02 00 01 FD|000111|2
011D AD 03 0F  LDA $0F03     |3D 00 01 FD|000101|4
0120 4D 0B 0F  EOR $0F0B     |08 00 01 FD|000101|4
0123 29 80     AND #$80      |00 00 01 FD|000111|2
0125 D0 1C     BNE $0143     |00 00 01 FD|000111|2
0127 AD 03 0F  LDA $0F03     |3D 00 01 FD|000101|4
012A 4D 0C 0F  EOR $0F0C     |08 00 01 FD|000101|4
012D 29 40     AND #$40      |00 00 01 FD|000111|2
012F D0 12     BNE $0143     |00 00 01 FD|000111|2
0131 AD 03 0F  LDA $0F03     |3D 00 01 FD|000101|4
0134 4D 0D 0F  EOR $0F0D     |08 00 01 FD|000101|4
0137 29 02     AND #$02      |00 00 01 FD|000111|2
0139 D0 08     BNE $0143     |00 00 01 FD|000111|2
013B AD 03 0F  LDA $0F03     |3D 00 01 FD|000101|4
013E 4D 01 0F  EOR $0F01     |08 00 01 FD|000101|4
0141 29 01     AND #$01      |00 00 01 FD|000111|2
0143 60        RTS           |00 00 01 FF|000111|6
0046 D0 12     BNE $005A     |00 00 01 FF|000111|2
0048 EE 06 0F  INC $0F06     |00 00 01 FF|000101|6
004B D0 D5     BNE $0022     |00 00 01 FF|000101|3
0022 AD 06 0F  LDA $0F06     |03 00 01 FF|000101|4
0025 29 0F     AND #$0F      |03 00 01 FF|000101|2
0027 8D 08 0F  STA $0F08     |03 00 01 FF|000101|4
002A AD 06 0F  LDA $0F06     |03 00 01 FF|000101|4
002D 29 F0     AND #$F0      |00 00 01 FF|000111|2
002F 8D 07 0F  STA $0F07     |00 00 01 FF|000111|4
0032 20 5B 00  JSR $005B     |00 00 01 FD|000111|6
005B F8        SED           |00 00 01 FD|001111|2
005C C0 01     CPY #$01      |00 00 01 FD|001111|2
005E AD 06 0F  LDA $0F06     |03 00 01 FD|001101|4
0061 6D 09 0F  ADC $0F09     |04 00 01 FD|001100|4
0064 8D 02 0F  STA $0F02     |04 00 01 FD|001100|4
0067 08        PHP           |04 00 01 FC|001100|3
0068 68        PLA           |3C 00 01 FD|001100|4
0069 8D 03 0F  STA $0F03     |3C 00 01 FD|001100|4
006C D8        CLD           |3C 00 01 FD|000100|2
006D C0 01     CPY #$01      |3C 00 01 FD|000111|2
006F AD 06 0F  LDA $0F06     |03 00 01 FD|000101|4
0072 6D 09 0F  ADC $0F09     |04 00 01 FD|000100|4
0075 8D 04 0F  STA $0F04     |04 00 01 FD|000100|4
0078 08        PHP           |04 00 01 FC|000100|3
0079 68        PLA           |34 00 01 FD|000100|4
007A 8D 05 0F  STA $0F05     |34 00 01 FD|000100|4
007D C0 01     CPY #$01      |34 00 01 FD|000111|2
007F AD 08 0F  LDA $0F08     |03 00 01 FD|000101|4
0082 6D 0A 0F  ADC $0F0A     |04 00 01 FD|000100|4
0085 C9 0A     CMP #$0A      |04 00 01 FD|100100|2
0087 A2 00     LDX #$00      |04 00 01 FD|000110|2
0089 90 06     BCC $0091     |04 00 01 FD|000110|3
0091 0D 07 0F  ORA $0F07     |04 00 01 FD|000100|4
0094 7D 0E 0F  ADC $0F0E,X   |04 00 01 FD|000100|4
0097 08        PHP           |04 00 01 FC|000100|3
0098 B0 04     BCS $009E     |04 00 01 FC|000100|2
009A C9 A0     CMP #$A0      |04 00 01 FC|000100|2
009C 90 03     BCC $00A1     |04 00 01 FC|000100|3
00A1 8D 00 0F  STA $0F00     |04 00 01 FC|000100|4
00A4 08        PHP           |04 00 01 FB|000100|3
00A5 68        PLA           |34 00 01 FC|000100|4
00A6 8D 01 0F  STA $0F01     |34 00 01 FC|000100|4
00A9 68        PLA           |34 00 01 FD|000100|4
00AA 8D 0C 0F  STA $0F0C     |34 00 01 FD|000100|4
00AD 60        RTS           |34 00 01 FF|000100|6
0035 20 44 01  JSR $0144     |34 00 01 FD|000100|6
0144 AD 0C 0F  LDA $0F0C     |34 00 01 FD|000100|4
0147 8D 0B 0F  STA $0F0B     |34 00 01 FD|000100|4
014A AD 05 0F  LDA $0F05     |34 00 01 FD|000100|4
014D 8D 0D 0F  STA $0F0D     |34 00 01 FD|000100|4
0150 60        RTS           |34 00 01 FF|000100|6
0038 20 15 01  JSR $0115     |34 00 01 FD|000100|6
0115 AD 02 0F  LDA $0F02     |04 00 01 FD|000100|4
0118 CD 00 0F  CMP $0F00     |04 00 01 FD|000111|4
011B D0 26     BNE $0143     |04 00 01 FD|000111|2
011D AD 03 0F  LDA $0F03     |3C 00 01 FD|000101|4
0120 4D 0B 0F  EOR $0F0B     |08 00 01 FD|000101|4
0123 29 80     AND #$80      |00 00 01 FD|000111|2
0125 D0 1C     BNE $0143     |00 00 01 FD|000111|2
0127 AD 03 0F  LDA $0F03     |3C 00 01 FD|000101|4
012A 4D 0C 0F  EOR $0F0C     |08 00 01 FD|000101|4
012D 29 40     AND #$40      |00 00 01 FD|000111|2
012F D0 12     BNE $0143     |00 00 01 FD|000111|2
0131 AD 03 0F  LDA $0F03     |3C 00 01 FD|000101|4
0134 4D 0D 0F  EOR $0F0D     |08 00 01 FD|000101|4
0137 29 02     AND #$02      |00 00 01 FD|000111|2
0139 D0 08     BNE $0143     |00 00 01 FD|000111|2
013B AD 03 0F  LDA $0F03     |3C 00 01 FD|000101|4
013E 4D 01 0F  EOR $0F01     |08 00 01 FD|000101|4
0141 29 01     AND #$01      |00 00 01 FD|000111|2
0143 60        RTS           |00 00 01 FF|000111|6
003B D0 1D     BNE $005A     |00 00 01 FF|000111|2
003D 20 AE 00  JSR $00AE     |00 00 01 FD|000111|6
00AE F8        SED           |00 00 01 FD|001111|2
00AF C0 01     CPY #$01      |00 00 01 FD|001111|2
00B1 AD 06 0F  LDA $0F06     |03 00 01 FD|001101|4
00B4 ED 09 0F  SBC $0F09     |03 00 01 FD|001101|4
00B7 8D 02 0F  STA $0F02     |03 00 01 FD|001101|4
00BA 08        PHP           |03 00 01 FC|001101|3
00BB 68        PLA           |3D 00 01 FD|001101|4
00BC 8D 03 0F  STA $0F03     |3D 00 01 FD|001101|4
00BF D8        CLD           |3D 00 01 FD|000101|2
00C0 C0 01     CPY #$01      |3D 00 01 FD|000111|2
00C2 AD 06 0F  LDA $0F06     |03 00 01 FD|000101|4
00C5 ED 09 0F  SBC $0F09     |03 00 01 FD|000101|4
00C8 8D 04 0F  STA $0F04     |03 00 01 FD|000101|4
00CB 08        PHP           |03 00 01 FC|000101|3
00CC 68        PLA           |35 00 01 FD|000101|4
00CD 8D 05 0F  STA $0F05     |35 00 01 FD|000101|4
00D0 60        RTS           |35 00 01 FF|000101|6
0040 20 51 01  JSR $0151     |35 00 01 FD|000101|6
0151 20 D1 00  JSR $00D1     |35 00 01 FB|000101|6
00D1 C0 01     CPY #$01      |35 00 01 FB|000111|2
00D3 AD 08 0F  LDA $0F08     |03 00 01 FB|000101|4
00D6 ED 0A 0F  SBC $0F0A     |03 00 01 FB|000101|4
00D9 A2 00     LDX #$00      |03 00 01 FB|000111|2
00DB B0 06     BCS $00E3     |03 00 01 FB|000111|3
00E3 0D 07 0F  ORA $0F07     |03 00 01 FB|000101|4
00E6 FD 0E 0F  SBC $0F0E,X   |03 00 01 FB|000101|4
00E9 B0 02     BCS $00ED     |03 00 01 FB|000101|3
00ED 8D 00 0F  STA $0F00     |03 00 01 FB|000101|4
00F0 60        RTS           |03 00 01 FD|000101|6
0154 AD 05 0F  LDA $0F05     |35 00 01 FD|000101|4
0157 8D 0B 0F  STA $0F0B     |35 00 01 FD|000101|4
015A 8D 0C 0F  STA $0F0C     |35 00 01 FD|000101|4
015D 8D 0D 0F  STA $0F0D     |35 00 01 FD|000101|4
0160 8D 01 0F  STA $0F01     |35 00 01 FD|000101|4
0163 60        RTS           |35 00 01 FF|000101|6
0043 20 15 01  JSR $0115     |35 00 01 FD|000101|6
0115 AD 02 0F  LDA $0F02     |03 00 01 FD|000101|4
0118 CD 00 0F  CMP $0F00     |03 00 01 FD|000111|4
011B D0 26     BNE $0143     |03 00 01 FD|000111|2
011D AD 03 0F  LDA $0F03     |3D 00 01 FD|000101|4
0120 4D 0B 0F  EOR $0F0B     |08 00 01 FD|000101|4
0123 29 80     AND #$80      |00 00 01 FD|000111|2
0125 D0 1C     BNE $0143     |00 00 01 FD|000111|2
0127 AD 03 0F  LDA $0F03     |3D 00 01 FD|000101|4
012A 4D 0C 0F  EOR $0F0C     |08 00 01 FD|000101|4
012D 29 40     AND #$40      |00 00 01 FD|000111|2
012F D0 12     BNE $0143     |00 00 01 FD|000111|2
0131 AD 03 0F  LDA $0F03     |3D 00 01 FD|000101|4
0134 4D 0D 0F  EOR $0F0D     |08 00 01 FD|000101|4
0137 29 02     AND #$02      |00 00 01 FD|000111|2
0139 D0 08     BNE $0143     |00 00 01 FD|000111|2
013B AD 03 0F  LDA $0F03     |3D 00 01 FD|000101|4
013E 4D 01 0F  EOR $0F01     |08 00 01 FD|000101|4
0141 29 01     AND #$01      |00 00 01 FD|000111|2
0143 60        RTS           |00 00 01 FF|000111|6
0046 D0 12     BNE $005A     |00 00 01 FF|000111|2
0048 EE 06 0F  INC $0F06     |00 00 01 FF|000101|6
004B D0 D5     BNE $0022     |00 00 01 FF|000101|3
0022 AD 06 0F  LDA $0F06     |04 00 01 FF|000101|4
0025 29 0F     AND #$0F      |04 00 01 FF|000101|2
0027 8D 08 0F  STA $0F08     |04 00 01 FF|000101|4
002A AD 06 0F  LDA $0F06     |04 00 01 FF|000101|4
002D 29 F0     AND #$F0      |00 00 01 FF|000111|2
002F 8D 07 0F  STA $0F07     |00 00 01 FF|000111|4
0032 20 5B 00  JSR $005B     |00 00 01 FD|000111|6
005B F8        SED           |00 00 01 FD|001111|2
005C C0 01     CPY #$01      |00 00 01 FD|001111|2
005E AD 06 0F  LDA $0F06     |04 00 01 FD|001101|4
0061 6D 09 0F  ADC $0F09     |05 00 01 FD|001100|4
0064 8D 02 0F  STA $0F02     |05 00 01 FD|001100|4
0067 08        PHP           |05 00 01 FC|001100|3
0068 68        PLA           |3C 00 01 FD|001100|4
0069 8D 03 0F  STA $0F03     |3C 00 01 FD|001100|4
006C D8        CLD           |3C 00 01 FD|000100|2
006D C0 01     CPY #$01      |3C 00 01 FD|000111|2
006F AD 06 0F  LDA $0F06     |04 00 01 FD|000101|4
0072 6D 09 0F  ADC $0F09     |05 00 01 FD|000100|4
0075 8D 04 0F  STA $0F04     |05 00 01 FD|000100|4
0078 08        PHP           |05 00 01 FC|000100|3
0079 68        PLA           |34 00 01 FD|000100|4
007A 8D 05 0F  STA $0F05     |34 00 01 FD|000100|4
007D C0 01     CPY #$01      |34 00 01 FD|000111|2
007F AD 08 0F  LDA $0F08     |04 00 01 FD|000101|4
0082 6D 0A 0F  ADC $0F0A     |05 00 01 FD|000100|4
0085 C9 0A     CMP #$0A      |05 00 01 FD|100100|2
0087 A2 00     LDX #$00      |05 00 01 FD|000110|2
0089 90 06     BCC $0091     |05 00 01 FD|000110|3
0091 0D 07 0F  ORA $0F07     |05 00 01 FD|000100|4
0094 7D 0E 0F  ADC $0F0E,X   |05 00 01 FD|000100|4
0097 08        PHP           |05 00 01 FC|000100|3
0098 B0 04     BCS $009E     |05 00 01 FC|000100|2
009A C9 A0     CMP #$A0      |05 00 01 FC|000100|2
009C 90 03     BCC $00A1     |05 00 01 FC|000100|3
00A1 8D 00 0F  STA $0F00     |05 00 01 FC|000100|4
00A4 08        PHP           |05 00 01 FB|000100|3
00A5 68        PLA           |34 00 01 FC|000100|4
00A6 8D 01 0F  STA $0F01     |34 00 01 FC|000100|4
00A9 68        PLA           |34 00 01 FD|000100|4
00AA 8D 0C 0F  STA $0F0C     |34 00 01 FD|000100|4
00AD 60        RTS           |34 00 01 FF|000100|6
0035 20 44 01  JSR $0144     |34 00 01 FD|000100|6
0144 AD 0C 0F  LDA $0F0C     |34 00 01 FD|000100|4
0147 8D 0B 0F  STA $0F0B     |34 00 01 FD|000100|4
014A AD 05 0F  LDA $0F05     |34 00 01 FD|000100|4
014D 8D 0D 0F  STA $0F0D     |34 00 01 FD|000100|4
0150 60        RTS           |34 00 01 FF|000100|6
0038 20 15 01  JSR $0115     |34 00 01 FD|000100|6
0115 AD 02 0F  LDA $0F02     |05 00 01 FD|000100|4
0118 CD 00 0F  CMP $0F00     |05 00 01 FD|000111|4
011B D0 26     BNE $0143     |05 00 01 FD|000111|2
011D AD 03 0F  LDA $0F03     |3C 00 01 FD|000101|4
0120 4D 0B 0F  EOR $0F0B     |08 00 01 FD|000101|4
0123 29 80     AND #$80      |00 00 01 FD|000111|2
0125 D0 1C     BNE $0143     |00 00 01 FD|000111|2
0127 AD 03 0F  LDA $0F03     |3C 00 01 FD|000101|4
012A 4D 0C 0F  EOR $0F0C     |08 00 01 FD|000101|4
012D 29 40     AND #$40      |00 00 01 FD|000111|2
012F D0 12     BNE $0143     |00 00 01 FD|000111|2
0131 AD 03 0F  LDA $0F03     |3C 00 01 FD|000101|4
0134 4D 0D 0F  EOR $0F0D     |08 00 01 FD|000101|4
0137 29 02     AND #$02      |00 00 01 FD|000111|2
0139 D0 08     BNE $0143     |00 00 01 FD|000111|2
013B AD 03 0F  LDA $0F03     |3C 00 01 FD|000101|4
013E 4D 01 0F  EOR $0F01     |08 00 01 FD|000101|4
0141 29 01     AND #$01      |00 00 01 FD|000111|2
0143 60        RTS           |00 00 01 FF|000111|6
003B D0 1D     BNE $005A     |00 00 01 FF|000111|2
003D 20 AE 00  JSR $00AE     |00 00 01 FD|000111|6
00AE F8        SED           |00 00 01 FD|001111|2
00AF C0 01     CPY #$01      |00 00 01 FD|001111|2
00B1 AD 06 0F  LDA $0F06     |04 00 01 FD|001101|4
00B4 ED 09 0F  SBC $0F09     |04 00 01 FD|001101|4
00B7 8D 02 0F  STA $0F02     |04 00 01 FD|001101|4
00BA 08        PHP           |04 00 01 FC|001101|3
00BB 68        PLA           |3D 00 01 FD|001101|4
00BC 8D 03 0F  STA $0F03     |3D 00 01 FD|001101|4
00BF D8        CLD           |3D 00 01 FD|000101|2
00C0 C0 01     CPY #$01      |3D 00 01 FD|000111|2
00C2 AD 06 0F  LDA $0F06     |04 00 01 FD|000101|4
00C5 ED 09 0F  SBC $0F09     |04 00 01 FD|000101|4
00C8 8D 04 0F  STA $0F04     |04 00 01 FD|000101|4
00CB 08        PHP           |04 00 01 FC|000101|3
00CC 68        PLA           |35 00 01 FD|000101|4
00CD 8D 05 0F  STA $0F05     |35 00 01 FD|000101|4
00D0 60        RTS           |35 00 01 FF|000101|6
0040 20 51 01  JSR $0151     |35 00 01 FD|000101|6
0151 20 D1 00  JSR $00D1     |35 00 01 FB|000101|6
00D1 C0 01     CPY #$01      |35 00 01 FB|000111|2
00D3 AD 08 0F  LDA $0F08     |04 00 01 FB|000101|4
00D6 ED 0A 0F  SBC $0F0A     |04 00 01 FB|000101|4
00D9 A2 00     LDX #$00      |04 00 01 FB|000111|2
00DB B0 06     BCS $00E3     |04 00 01 FB|000111|3
00E3 0D 07 0F  ORA $0F07     |04 00 01 FB|000101|4
00E6 FD 0E 0F  SBC $0F0E,X   |04 00 01 FB|000101|4
00E9 B0 02     BCS $00ED     |04 00 01 FB|000101|3
00ED 8D 00 0F  STA $0F00     |04 00 01 FB|000101|4
00F0 60        RTS           |04 00 01 FD|000101|6
0154 AD 05 0F  LDA $0F05     |35 00 01 FD|000101|4
0157 8D 0B 0F  STA $0F0B     |35 00 01 FD|000101|4
015A 8D 0C 0F  STA $0F0C     |35 00 01 FD|000101|4
015D 8D 0D 0F  STA $0F0D     |35 00 01 FD|000101|4
0160 8D 01 0F  STA $0F01     |35 00 01 FD|000101|4
0163 60        RTS           |35 00 01 FF|000101|6
0043 20 15 01  JSR $0115     |35 00 01 FD|000101|6
0115 AD 02 0F  LDA $0F02     |04 00 01 FD|000101|4
0118 CD 00 0F  CMP $0F00     |04 00 01 FD|000111|4
011B D0 26     BNE $0143     |04 00 01 FD|000111|2
011D AD 03 0F  LDA $0F03     |3D 00 01 FD|000101|4
0120 4D 0B 0F  EOR $0F0B     |08 00 01 FD|000101|4
0123 29 80     AND #$80      |00 00 01 FD|000111|2
0125 D0 1C     BNE $0143     |00 00 01 FD|000111|2
0127 AD 03 0F  LDA $0F03     |3D 00 01 FD|000101|4
012A 4D 0C 0F  EOR $0F0C     |08 00 01 FD|000101|4
012D 29 40     AND #$40      |00 00 01 FD|000111|2
012F D0 12     BNE $0143     |00 00 01 FD|000111|2
0131 AD 03 0F  LDA $0F03     |3D 00 01 FD|000101|4
0134 4D 0D 0F  EOR $0F0D     |08 00 01 FD|000101|4
0137 29 02     AND #$02      |00 00 01 FD|000111|2
0139 D0 08     BNE $0143     |00 00 01 FD|000111|2
013B AD 03 0F  LDA $0F03     |3D 00 01 FD|000101|4
013E 4D 01 0F  EOR $0F01     |08 00 01 FD|000101|4
0141 29 01     AND #$01      |00 00 01 FD|000111|2
0143 60        RTS           |00 00 01 FF|000111|6
0046 D0 12     BNE $005A     |00 00 01 FF|000111|2
0048 EE 06 0F  INC $0F06     |00 00 01 FF|000101|6
004B D0 D5     BNE $0022     |00 00 01 FF|000101|3
0022 AD 06 0F  LDA $0F06     |05 00 01 FF|000101|4
0025 29 0F     AND #$0F      |05 00 01 FF|000101|2
0027 8D 08 0F  STA $0F08     |05 00 01 FF|000101|4
002A AD 06 0F  LDA $0F06     |05 00 01 FF|000101|4
002D 29 F0     AND #$F0      |00 00 01 FF|000111|2
002F 8D 07 0F  STA $0F07     |00 00 01 FF|000111|4
0032 20 5B 00  JSR $005B     |00 00 01 FD|000111|6
005B F8        SED           |00 00 01 FD|001111|2
005C C0 01     CPY #$01      |00 00 01 FD|001111|2
005E AD 06 0F  LDA $0F06     |05 00 01 FD|001101|4
0061 6D 09 0F  ADC $0F09     |06 00 01 FD|001100|4
0064 8D 02 0F  STA $0F02     |06 00 01 FD|001100|4
0067 08        PHP           |06 00 01 FC|001100|3
0068 68        PLA           |3C 00 01 FD|001100|4
0069 8D 03 0F  STA $0F03     |3C 00 01 FD|001100|4
006C D8        CLD           |3C 00 01 FD|000100|2
006D C0 01     CPY #$01      |3C 00 01 FD|000111|2
006F AD 06 0F  LDA $0F06     |05 00 01 FD|000101|4
0072 6D 09 0F  ADC $0F09     |06 00 01 FD|000100|4
0075 8D 04 0F  STA $0F04     |06 00 01 FD|000100|4
0078 08        PHP           |06 00 01 FC|000100|3
0079 68        PLA           |34 00 01 FD|000100|4
007A 8D 05 0F  STA $0F05     |34 00 01 FD|000100|4
007D C0 01     CPY #$01      |34 00 01 FD|000111|2
007F AD 08 0F  LDA $0F08     |05 00 01 FD|000101|4
0082 6D 0A 0F  ADC $0F0A     |06 00 01 FD|000100|4
0085 C9 0A     CMP #$0A      |06 00 01 FD|100100|2
0087 A2 00     LDX #$00      |06 00 01 FD|000110|2
0089 90 06     BCC $0091     |06 00 01 FD|000110|3
0091 0D 07 0F  ORA $0F07     |06 00 01 FD|000100|4
0094 7D 0E 0F  ADC $0F0E,X   |06 00 01 FD|000100|4
0097 08        PHP           |06 00 01 FC|000100|3
0098 B0 04     BCS $009E     |06 00 01 FC|000100|2
009A C9 A0     CMP #$A0      |06 00 01 FC|000100|2
009C 90 03     BCC $00A1     |06 00 01 FC|000100|3
00A1 8D 00 0F  STA $0F00     |06 00 01 FC|000100|4
00A4 08        PHP           |06 00 01 FB|000100|3
00A5 68        PLA           |34 00 01 FC|000100|4
00A6 8D 01 0F  STA $0F01     |34 00 01 FC|000100|4
00A9 68        PLA           |34 00 01 FD|000100|4
00AA 8D 0C 0F  STA $0F0C     |34 00 01 FD|000100|4
00AD 60        RTS           |34 00 01 FF|000100|6
0035 20 44 01  JSR $0144     |34 00 01 FD|000100|6
0144 AD 0C 0F  LDA $0F0C     |34 00 01 FD|000100|4
0147 8D 0B 0F  STA $0F0B     |34 00 01 FD|000100|4
014A AD 05 0F  LDA $0F05     |34 00 01 FD|000100|4
014D 8D 0D 0F  STA $0F0D     |34 00 01 FD|000100|4
0150 60        RTS           |34 00 01 FF|000100|6
0038 20 15 01  JSR $0115     |34 00 01 FD|000100|6
0115 AD 02 0F  LDA $0F02     |06 00 01 FD|000100|4
0118 CD 00 0F  CMP $0F00     |06 00 01 FD|000111|4
011B D0 26     BNE $0143     |06 00 01 FD|000111|2
011D AD 03 0F  LDA $0F03     |3C 00 01 FD|000101|4
0120 4D 0B 0F  EOR $0F0B     |08 00 01 FD|000101|4
0123 29 80     AND #$80      |00 00 01 FD|000111|2
0125 D0 1C     BNE $0143     |00 00 01 FD|000111|2
0127 AD 03 0F  LDA $0F03     |3C 00 01 FD|000101|4
012A 4D 0C 0F  EOR $0F0C     |08 00 01 FD|000101|4
012D 29 40     AND #$40      |00 00 01 FD|000111|2
012F D0 12     BNE $0143     |00 00 01 FD|000111|2
0131 AD 03 0F  LDA $0F03     |3C 00 01 FD|000101|4
0134 4D 0D 0F  EOR $0F0D     |08 00 01 FD|000101|4
0137 29 02     AND #$02      |00 00 01 FD|000111|2
0139 D0 08     BNE $0143     |00 00 01 FD|000111|2
013B AD 03 0F  LDA $0F03     |3C 00 01 FD|000101|4
013E 4D 01 0F  EOR $0F01     |08 00 01 FD|000101|4
0141 29 01     AND #$01      |00 00 01 FD|000111|2
0143 60        RTS           |00 00 01 FF|000111|6
003B D0 1D     BNE $005A     |00 00 01 FF|000111|2
003D 20 AE 00  JSR $00AE     |00 00 01 FD|000111|6
00AE F8        SED           |00 00 01 FD|001111|2
00AF C0 01     CPY #$01      |00 00 01 FD|001111|2
00B1 AD 06 0F  LDA $0F06     |05 00 01 FD|001101|4
00B4 ED 09 0F  SBC $0F09     |05 00 01 FD|001101|4
00B7 8D 02 0F  STA $0F02     |05 00 01 FD|001101|4
00BA 08        PHP           |05 00 01 FC|001101|3
00BB 68        PLA           |3D 00 01 FD|001101|4
00BC 8D 03 0F  STA $0F03     |3D 00 01 FD|001101|4
00BF D8        CLD           |3D 00 01 FD|000101|2
00C0 C0 01     CPY #$01      |3D 00 01 FD|000111|2
00C2 AD 06 0F  LDA $0F06     |05 00 01 FD|000101|4
00C5 ED 09 0F  SBC $0F09     |05 00 01 FD|000101|4
00C8 8D 04 0F  STA $0F04     |05 00 01 FD|000101|4
00CB 08        PHP           |05 00 01 FC|000101|3
00CC 68        PLA           |35 00 01 FD|000101|4
00CD 8D 05 0F  STA $0F05     |35 00 01 FD|000101|4
00D0 60        RTS           |35 00 01 FF|000101|6
0040 20 51 01  JSR $0151     |35 00 01 FD|000101|6
0151 20 D1 00  JSR $00D1     |35 00 01 FB|000101|6
00D1 C0 01     CPY #$01      |35 00 01 FB|000111|2
00D3 AD 08 0F  LDA $0F08     |05 00 01 FB|000101|4
00D6 ED 0A 0F  SBC $0F0A     |05 00 01 FB|000101|4
00D9 A2 00     LDX #$00      |05 00 01 FB|000111|2
00DB B0 06     BCS $00E3     |05 00 01 FB|000111|3
00E3 0D 07 0F  ORA $0F07     |05 00 01 FB|000101|4
00E6 FD 0E 0F  SBC $0F0E,X   |05 00 01 FB|000101|4
00E9 B0 02     BCS $00ED     |05 00 01 FB|000101|3
00ED 8D 00 0F  STA $0F00     |05 00 01 FB|000101|4
00F0 60        RTS           |05 00 01 FD|000101|6
0154 AD 05 0F  LDA $0F05     |35 00 01 FD|000101|4
0157 8D 0B 0F  STA $0F0B     |35 00 01 FD|000101|4
015A 8D 0C 0F  STA $0F0C     |35 00 01 FD|000101|4
015D 8D 0D 0F  STA $0F0D     |35 00 01 FD|000101|4
0160 8D 01 0F  STA $0F01     |35 00 01 FD|000101|4
0163 60        RTS           |35 00 01 FF|000101|6
0043 20 15 01  JSR $0115     |35 00 01 FD|000101|6
0115 AD 02 0F  LDA $0F02     |05 00 01 FD|000101|4
0118 CD 00 0F  CMP $0F00     |05 00 01 FD|000111|4
011B D0 26     BNE $0143     |05 00 01 FD|000111|2
011D AD 03 0F  LDA $0F03     |3D 00 01 FD|000101|4
0120 4D 0B 0F  EOR $0F0B     |08 00 01 FD|000101|4
0123 29 80     AND #$80      |00 00 01 FD|000111|2
0125 D0 1C     BNE $0143     |00 00 01 FD|000111|2
0127 AD 03 0F  LDA $0F03     |3D 00 01 FD|000101|4
012A 4D 0C 0F  EOR $0F0C     |08 00 01 FD|000101|4
012D 29 40     AND #$40      |00 00 01 FD|000111|2
012F D0 12     BNE $0143     |00 00 01 FD|000111|2
0131 AD 03 0F  LDA $0F03     |3D 00 01 FD|000101|4
0134 4D 0D 0F  EOR $0F0D     |08 00 01 FD|000101|4
0137 29 02     AND #$02      |00 00 01 FD|000111|2
0139 D0 08     BNE $0143     |00 00 01 FD|000111|2
013B AD 03 0F  LDA $0F03     |3D 00 01 FD|000101|4
013E 4D 01 0F  EOR $0F01     |08 00 01 FD|000101|4
0141 29 01     AND #$01      |00 00 01 FD|000111|2
0143 60        RTS           |00 00 01 FF|000111|6
0046 D0 12     BNE $005A     |00 00 01 FF|000111|2
0048 EE 06 0F  INC $0F06     |00 00 01 FF|000101|6
004B D0 D5     BNE $0022     |00 00 01 FF|000101|3
0022 AD 06 0F  LDA $0F06     |06 00 01 FF|000101|4
0025 29 0F     AND #$0F      |06 00 01 FF|000101|2
0027 8D 08 0F  STA $0F08     |06 00 01 FF|000101|4
002A AD 06 0F  LDA $0F06     |06 00 01 FF|000101|4
002D 29 F0     AND #$F0      |00 00 01 FF|000111|2
002F 8D 07 0F  STA $0F07     |00 00 01 FF|000111|4
0032 20 5B 00  JSR $005B     |00 00 01 FD|000111|6
005B F8        SED           |00 00 01 FD|001111|2
005C C0 01     CPY #$01      |00 00 01 FD|001111|2
005E AD 06 0F  LDA $0F06     |06 00 01 FD|001101|4
0061 6D 09 0F  ADC $0F09     |07 00 01 FD|001100|4
0064 8D 02 0F  STA $0F02     |07 00 01 FD|001100|4
0067 08        PHP           |07 00 01 FC|001100|3
0068 68        PLA           |3C 00 01 FD|001100|4
0069 8D 03 0F  STA $0F03     |3C 00 01 FD|001100|4
006C D8        CLD           |3C 00 01 FD|000100|2
006D C0 01     CPY #$01      |3C 00 01 FD|000111|2
006F AD 06 0F  LDA $0F06     |06 00 01 FD|000101|4
0072 6D 09 0F  ADC $0F09     |07 00 01 FD|000100|4
0075 8D 04 0F  STA $0F04     |07 00 01 FD|000100|4
0078 08        PHP           |07 00 01 FC|000100|3
0079 68        PLA           |34 00 01 FD|000100|4
007A 8D 05 0F  STA $0F05     |34 00 01 FD|000100|4
007D C0 01     CPY #$01      |34 00 01 FD|000111|2
007F AD 08 0F  LDA $0F08     |06 00 01 FD|000101|4
0082 6D 0A 0F  ADC $0F0A     |07 00 01 FD|000100|4
0085 C9 0A     CMP #$0A      |07 00 01 FD|100100|2
0087 A2 00     LDX #$00      |07 00 01 FD|000110|2
0089 90 06     BCC $0091     |07 00 01 FD|000110|3
0091 0D 07 0F  ORA $0F07     |07 00 01 FD|000100|4
0094 7D 0E 0F  ADC $0F0E,X   |07 00 01 FD|000100|4
0097 08        PHP           |07 00 01 FC|000100|3
0098 B0 04     BCS $009E     |07 00 01 FC|000100|2
009A C9 A0     CMP #$A0      |07 00 01 FC|000100|2
009C 90 03     BCC $00A1     |07 00 01 FC|000100|3
00A1 8D 00 0F  STA $0F00     |07 00 01 FC|000100|4
00A4 08        PHP           |07 00 01 FB|000100|3
00A5 68        PLA           |34 00 01 FC|000100|4
00A6 8D 01 0F  STA $0F01     |34 00 01 FC|000100|4
00A9 68        PLA           |34 00 01 FD|000100|4
00AA 8D 0C 0F  STA $0F0C     |34 00 01 FD|000100|4
00AD 60        RTS           |34 00 01 FF|000100|6
0035 20 44 01  JSR $0144     |34 00 01 FD|000100|6
0144 AD 0C 0F  LDA $0F0C     |34 00 01 FD|000100|4
0147 8D 0B 0F  STA $0F0B     |34 00 01 FD|000100|4
014A AD 05 0F  LDA $0F05     |34 00 01 FD|000100|4
014D 8D 0D 0F  STA $0F0D     |34 00 01 FD|000100|4
0150 60        RTS           |34 00 01 FF|000100|6
0038 20 15 01  JSR $0115     |34 00 01 FD|000100|6
0115 AD 02 0F  LDA $0F02     |07 00 01 FD|000100|4
0118 CD 00 0F  CMP $0F00     |07 00 01 FD|000111|4
011B D0 26     BNE $0143     |07 00 01 FD|000111|2
011D AD 03 0F  LDA $0F03     |3C 00 01 FD|000101|4
0120 4D 0B 0F  EOR $0F0B     |08 00 01 FD|000101|4
0123 29 80     AND #$80      |00 00 01 FD|000111|2
0125 D0 1C     BNE $0143     |00 00 01 FD|000111|2
0127 AD 03 0F  LDA $0F03     |3C 00 01 FD|000101|4
012A 4D 0C 0F  EOR $0F0C     |08 00 01 FD|000101|4
012D 29 40     AND #$40      |00 00 01 FD|000111|2
012F D0 12     BNE $0143     |00 00 01 FD|000111|2
0131 AD 03 0F  LDA $0F03     |3C 00 01 FD|000101|4
0134 4D 0D 0F  EOR $0F0D     |08 00 01 FD|000101|4
0137 29 02     AND #$02      |00 00 01 FD|000111|2
0139 D0 08     BNE $0143     |00 00 01 FD|000111|2
013B AD 03 0F  LDA $0F03     |3C 00 01 FD|000101|4
013E 4D 01 0F  EOR $0F01     |08 00 01 FD|000101|4
0141 29 01     AND #$01      |00 00 01 FD|000111|2
0143 60        RTS           |00 00 01 FF|000111|6
003B D0 1D     BNE $005A     |00 00 01 FF|000111|2
003D 20 AE 00  JSR $00AE     |00 00 01 FD|000111|6
00AE F8        SED           |00 00 01 FD|001111|2
00AF C0 01     CPY #$01      |00 00 01 FD|001111|2
00B1 AD 06 0F  LDA $0F06     |06 00 01 FD|001101|4
00B4 ED 09 0F  SBC $0F09     |06 00 01 FD|001101|4
00B7 8D 02 0F  STA $0F02     |06 00 01 FD|001101|4
00BA 08        PHP           |06 00 01 FC|001101|3
00BB 68        PLA           |3D 00 01 FD|001101|4
00BC 8D 03 0F  STA $0F03     |3D 00 01 FD|001101|4
00BF D8        CLD           |3D 00 01 FD|000101|2
00C0 C0 01     CPY #$01      |3D 00 01 FD|000111|2
00C2 AD 06 0F  LDA $0F06     |06 00 01 FD|000101|4
00C5 ED 09 0F  SBC $0F09     |06 00 01 FD|000101|4
00C8 8D 04 0F  STA $0F04     |06 00 01 FD|000101|4
00CB 08        PHP           |06 00 01 FC|000101|3
00CC 68        PLA           |35 00 01 FD|000101|4
00CD 8D 05 0F  STA $0F05     |35 00 01 FD|000101|4
00D0 60        RTS           |35 00 01 FF|000101|6
0040 20 51 01  JSR $0151     |35 00 01 FD|000101|6
0151 20 D1 00  JSR $00D1     |35 00 01 FB|000101|6
00D1 C0 01     CPY #$01      |35 00 01 FB|000111|2
00D3 AD 08 0F  LDA $0F08     |06 00 01 FB|000101|4
00D6 ED 0A 0F  SBC $0F0A     |06 00 01 FB|000101|4
00D9 A2 00     LDX #$00      |06 00 01 FB|000111|2
00DB B0 06     BCS $00E3     |06 00 01 FB|000111|3
00E3 0D 07 0F  ORA $0F07     |06 00 01 FB|000101|4
00E6 FD 0E 0F  SBC $0F0E,X   |06 00 01 FB|000101|4
00E9 B0 02     BCS $00ED     |06 00 01 FB|000101|3
00ED 8D 00 0F  STA $0F00     |06 00 01 FB|000101|4
00F0 60        RTS           |06 00 01 FD|000101|6
0154 AD 05 0F  LDA $0F05     |35 00 01 FD|000101|4
0157 8D 0B 0F  STA $0F0B     |35 00 01 FD|000101|4
015A 8D 0C 0F  STA $0F0C     |35 00 01 FD|000101|4
015D 8D 0D 0F  STA $0F0D     |35 00 01 FD|000101|4
0160 8D 01 0F  STA $0F01     |35 00 01 FD|000101|4
0163 60        RTS           |35 00 01 FF|000101|6
0043 20 15 01  JSR $0115     |35 00 01 FD|000101|6
0115 AD 02 0F  LDA $0F02     |06 00 01 FD|000101|4
0118 CD 00 0F  CMP $0F00     |06 00 01 FD|000111|4
011B D0 26     BNE $0143     |06 00 01 FD|000111|2
011D AD 03 0F  LDA $0F03     |3D 00 01 FD|000101|4
0120 4D 0B 0F  EOR $0F0B     |08 00 01 FD|000101|4
0123 29 80     AND #$80      |00 00 01 FD|000111|2
0125 D0 1C     BNE $0143     |00 00 01 FD|000111|2
0127 AD 03 0F  LDA $0F03     |3D 00 01 FD|000101|4
012A 4D 0C 0F  EOR $0F0C     |08 00 01 FD|000101|4
012D 29 40     AND #$40      |00 00 01 FD|000111|2
012F D0 12     BNE $0143     |00 00 01 FD|000111|2
0131 AD 03 0F  LDA $0F03     |3D 00 01 FD|000101|4
0134 4D 0D 0F  EOR $0F0D     |08 00 01 FD|000101|4
0137 29 02     AND #$02      |00 00 01 FD|000111|2
0139 D0 08     BNE $0143     |00 00 01 FD|000111|2
013B AD 03 0F  LDA $0F03     |3D 00 01 FD|000101|4
013E 4D 01 0F  EOR $0F01     |08 00 01 FD|000101|4
0141 29 01     AND #$01      |00 00 01 FD|000111|2
0143 60        RTS           |00 00 01 FF|000111|6
0046 D0 12     BNE $005A     |00 00 01 FF|000111|2
0048 EE 06 0F  INC $0F06     |00 00 01 FF|000101|6
004B D0 D5     BNE $0022     |00 00 01 FF|000101|3
0022 AD 06 0F  LDA $0F06     |07 00 01 FF|000101|4
0025 29 0F     AND #$0F      |07 00 01 FF|000101|2
0027 8D 08 0F  STA $0F08     |07 00 01 FF|000101|4
002A AD 06 0F  LDA $0F06     |07 00 01 FF|000101|4
002D 29 F0     AND #$F0      |00 00 01 FF|000111|2
002F 8D 07 0F  STA $0F07     |00 00 01 FF|000111|4
0032 20 5B 00  JSR $005B     |00 00 01 FD|000111|6
005B F8        SED           |00 00 01 FD|001111|2
005C C0 01     CPY #$01      |00 00 01 FD|001111|2
005E AD 06 0F  LDA $0F06     |07 00 01 FD|001101|4
0061 6D 09 0F  ADC $0F09     |08 00 01 FD|001100|4
0064 8D 02 0F  STA $0F02     |08 00 01 FD|001100|4
0067 08        PHP           |08 00 01 FC|001100|3
0068 68        PLA           |3C 00 01 FD|001100|4
0069 8D 03 0F  STA $0F03     |3C 00 01 FD|001100|4
006C D8        CLD           |3C 00 01 FD|000100|2
006D C0 01     CPY #$01      |3C 00 01 FD|000111|2
006F AD 06 0F  LDA $0F06     |07 00 01 FD|000101|4
0072 6D 09 0F  ADC $0F09     |08 00 01 FD|000100|4
0075 8D 04 0F  STA $0F04     |08 00 01 FD|000100|4
0078 08        PHP           |08 00 01 FC|000100|3
0079 68        PLA           |34 00 01 FD|000100|4
007A 8D 05 0F  STA $0F05     |34 00 01 FD|000100|4
007D C0 01     CPY #$01      |34 00 01 FD|000111|2
007F AD 08 0F  LDA $0F08     |07 00 01 FD|000101|4
0082 6D 0A 0F  ADC $0F0A     |08 00 01 FD|000100|4
0085 C9 0A     CMP #$0A      |08 00 01 FD|100100|2
0087 A2 00     LDX #$00      |08 00 01 FD|000110|2
0089 90 06     BCC $0091     |08 00 01 FD|000110|3
0091 0D 07 0F  ORA $0F07     |08 00 01 FD|000100|4
0094 7D 0E 0F  ADC $0F0E,X   |08 00 01 FD|000100|4
0097 08        PHP           |08 00 01 FC|000100|3
0098 B0 04     BCS $009E     |08 00 01 FC|000100|2
009A C9 A0     CMP #$A0      |08 00 01 FC|000100|2
009C 90 03     BCC $00A1     |08 00 01 FC|000100|3
00A1 8D 00 0F  STA $0F00     |08 00 01 FC|000100|4
00A4 08        PHP           |08 00 01 FB|000100|3
00A5 68        PLA           |34 00 01 FC|000100|4
00A6 8D 01 0F  STA $0F01     |34 00 01 FC|000100|4
00A9 68        PLA           |34 00 01 FD|000100|4
00AA 8D 0C 0F  STA $0F0C     |34 00 01 FD|000100|4
00AD 60        RTS           |34 00 01 FF|000100|6
0035 20 44 01  JSR $0144     |34 00 01 FD|000100|6
0144 AD 0C 0F  LDA $0F0C     |34 00 01 FD|000100|4
0147 8D 0B 0F  STA $0F0B     |34 00 01 FD|000100|4
014A AD 05 0F  LDA $0F05     |34 00 01 FD|000100|4
014D 8D 0D 0F  STA $0F0D     |34 00 01 FD|000100|4
0150 60        RTS           |34 00 01 FF|000100|6
0038 20 15 01  JSR $0115     |34 00 01 FD|000100|6
0115 AD 02 0F  LDA $0F02     |08 00 01 FD|000100|4
0118 CD 00 0F  CMP $0F00     |08 00 01 FD|000111|4
011B D0 26     BNE $0143     |08 00 01 FD|000111|2
011D AD 03 0F  LDA $0F03     |3C 00 01 FD|000101|4
0120 4D 0B 0F  EOR $0F0B     |08 00 01 FD|000101|4
0123 29 80     AND #$80      |00 00 01 FD|000111|2
0125 D0 1C     BNE $0143     |00 00 01 FD|000111|2
0127 AD 03 0F  LDA $0F03     |3C 00 01 FD|000101|4
012A 4D 0C 0F  EOR $0F0C     |08 00 01 FD|000101|4
012D 29 40     AND #$40      |00 00 01 FD|000111|2
012F D0 12     BNE $0143     |00 00 01 FD|000111|2
0131 AD 03 0F  LDA $0F03     |3C 00 01 FD|000101|4
0134 4D 0D 0F  EOR $0F0D     |08 00 01 FD|000101|4
0137 29 02     AND #$02      |00 00 01 FD|000111|2
0139 D0 08     BNE $0143     |00 00 01 FD|000111|2
013B AD 03 0F  LDA $0F03     |3C 00 01 FD|000101|4
013E 4D 01 0F  EOR $0F01     |08 00 01 FD|000101|4
0141 29 01     AND #$01      |00 00 01 FD|000111|2
0143 60        RTS           |00 00 01 FF|000111|6
003B D0 1D     BNE $005A     |00 00 01 FF|000111|2
003D 20 AE 00  JSR $00AE     |00 00 01 FD|000111|6
00AE F8        SED           |00 00 01 FD|001111|2
00AF C0 01     CPY #$01      |00 00 01 FD|001111|2
00B1 AD 06 0F  LDA $0F06     |07 00 01 FD|001101|4
00B4 ED 09 0F  SBC $0F09     |07 00 01 FD|001101|4
00B7 8D 02 0F  STA $0F02     |07 00 01 FD|001101|4
00BA 08        PHP           |07 00 01 FC|001101|3
00BB 68        PLA           |3D 00 01 FD|001101|4
00BC 8D 03 0F  STA $0F03     |3D 00 01 FD|001101|4
00BF D8        CLD           |3D 00 01 FD|000101|2
00C0 C0 01     CPY #$01      |3D 00 01 FD|000111|2
00C2 AD 06 0F  LDA $0F06     |07 00 01 FD|000101|4
00C5 ED 09 0F  SBC $0F09     |07 00 01 FD|000101|4
00C8 8D 04 0F  STA $0F04     |07 00 01 FD|000101|4
00CB 08        PHP           |07 00 01 FC|000101|3
00CC 68        PLA           |35 00 01 FD|000101|4
00CD 8D 05 0F  STA $0F05     |35 00 01 FD|000101|4
00D0 60        RTS           |35 00 01 FF|000101|6
0040 20 51 01  JSR $0151     |35 00 01 FD|000101|6
0151 20 D1 00  JSR $00D1     |35 00 01 FB|000101|6
00D1 C0 01     CPY #$01      |35 00 01 FB|000111|2
00D3 AD 08 0F  LDA $0F08     |07 00 01 FB|000101|4
00D6 ED 0A 0F  SBC $0F0A     |07 00 01 FB|000101|4
00D9 A2 00     LDX #$00      |07 00 01 FB|000111|2
00DB B0 06     BCS $00E3     |07 00 01 FB|000111|3
00E3 0D 07 0F  ORA $0F07     |07 00 01 FB|000101|4
00E6 FD 0E 0F  SBC $0F0E,X   |07 00 01 FB|000101|4
00E9 B0 02     BCS $00ED     |07 00 01 FB|000101|3
00ED 8D 00 0F  STA $0F00     |07 00 01 FB|000101|4
00F0 60        RTS           |07 00 01 FD|000101|6
0154 AD 05 0F  LDA $0F05     |35 00 01 FD|000101|4
0157 8D 0B 0F  STA $0F0B     |35 00 01 FD|000101|4
015A 8D 0C 0F  STA $0F0C     |35 00 01 FD|000101|4
015D 8D 0D 0F  STA $0F0D     |35 00 01 FD|000101|4
0160 8D 01 0F  STA $0F01     |35 00 01 FD|000101|4
0163 60        RTS           |35 00 01 FF|000101|6
0043 20 15 01  JSR $0115     |35 00 01 FD|000101|6
0115 AD 02 0F  LDA $0F02     |07 00 01 FD|000101|4
0118 CD 00 0F  CMP $0F00     |07 00 01 FD|000111|4
011B D0 26     BNE $0143     |07 00 01 FD|000111|2
011D AD 03 0F  LDA $0F03     |3D 00 01 FD|000101|4
0120 4D 0B 0F  EOR $0F0B     |08 00 01 FD|000101|4
0123 29 80     AND #$80      |00 00 01 FD|000111|2
0125 D0 1C     BNE $0143     |00 00 01 FD|000111|2
0127 AD 03 0F  LDA $0F03     |3D 00 01 FD|000101|4
012A 4D 0C 0F  EOR $0F0C     |08 00 01 FD|000101|4
012D 29 40     AND #$40      |00 00 01 FD|000111|2
012F D0 12     BNE $0143     |00 00 01 FD|000111|2
0131 AD 03 0F  LDA $0F03     |3D 00 01 FD|000101|4
0134 4D 0D 0F  EOR $0F0D     |08 00 01 FD|000101|4
0137 29 02     AND #$02      |00 00 01 FD|000111|2
0139 D0 08     BNE $0143     |00 00 01 FD|000111|2
013B AD 03 0F  LDA $0F03     |3D 00 01 FD|000101|4
013E 4D 01 0F  EOR $0F01     |08 00 01 FD|000101|4
0141 29 01     AND #$01      |00 00 01 FD|000111|2
0143 60        RTS           |00 00 01 FF|000111|6
0046 D0 12     BNE $005A     |00 00 01 FF|000111|2
0048 EE 06 0F  INC $0F06     |00 00 01 FF|000101|6
004B D0 D5     BNE $0022     |00 00 01 FF|000101|3
0022 AD 06 0F  LDA $0F06     |08 00 01 FF|000101|4
0025 29 0F     AND #$0F      |08 00 01 FF|000101|2
0027 8D 08 0F  STA $0F08     |08 00 01 FF|000101|4
002A AD 06 0F  LDA $0F06     |08 00 01 FF|000101|4
002D 29 F0     AND #$F0      |00 00 01 FF|000111|2
002F 8D 07 0F  STA $0F07     |00 00 01 FF|000111|4
0032 20 5B 00  JSR $005B     |00 00 01 FD|000111|6
005B F8        SED           |00 00 01 FD|001111|2
005C C0 01     CPY #$01      |00 00 01 FD|001111|2
005E AD 06 0F  LDA $0F06     |08 00 01 FD|001101|4
0061 6D 09 0F  ADC $0F09     |09 00 01 FD|001100|4
0064 8D 02 0F  STA $0F02     |09 00 01 FD|001100|4
0067 08        PHP           |09 00 01 FC|001100|3
0068 68        PLA           |3C 00 01 FD|001100|4
0069 8D 03 0F  STA $0F03     |3C 00 01 FD|001100|4
006C D8        CLD           |3C 00 01 FD|000100|2
006D C0 01     CPY #$01      |3C 00 01 FD|000111|2
006F AD 06 0F  LDA $0F06     |08 00 01 FD|000101|4
0072 6D 09 0F  ADC $0F09     |09 00 01 FD|000100|4
0075 8D 04 0F  STA $0F04     |09 00 01 FD|000100|4
0078 08        PHP           |09 00 01 FC|000100|3
0079 68        PLA           |34 00 01 FD|000100|4
007A 8D 05 0F  STA $0F05     |34 00 01 FD|000100|4
007D C0 01     CPY #$01      |34 00 01 FD|000111|2
007F AD 08 0F  LDA $0F08     |08 00 01 FD|000101|4
0082 6D 0A 0F  ADC $0F0A     |09 00 01 FD|000100|4
0085 C9 0A     CMP #$0A      |09 00 01 FD|100100|2
0087 A2 00     LDX #$00      |09 00 01 FD|000110|2
0089 90 06     BCC $0091     |09 00 01 FD|000110|3
0091 0D 07 0F  ORA $0F07     |09 00 01 FD|000100|4
0094 7D 0E 0F  ADC $0F0E,X   |09 00 01 FD|000100|4
0097 08        PHP           |09 00 01 FC|000100|3
0098 B0 04     BCS $009E     |09 00 01 FC|000100|2
009A C9 A0     CMP #$A0      |09 00 01 FC|000100|2
009C 90 03     BCC $00A1     |09 00 01 FC|000100|3
00A1 8D 00 0F  STA $0F00     |09 00 01 FC|000100|4
00A4 08        PHP           |09 00 01 FB|000100|3
00A5 68        PLA           |34 00 01 FC|000100|4
00A6 8D 01 0F  STA $0F01     |34 00 01 FC|000100|4
00A9 68        PLA           |34 00 01 FD|000100|4
00AA 8D 0C 0F  STA $0F0C     |34 00 01 FD|000100|4
00AD 60        RTS           |34 00 01 FF|000100|6
0035 20 44 01  JSR $0144     |34 00 01 FD|000100|6
0144 AD 0C 0F  LDA $0F0C     |34 00 01 FD|000100|4
0147 8D 0B 0F  STA $0F0B     |34 00 01 FD|000100|4
014A AD 05 0F  LDA $0F05     |34 00 01 FD|000100|4
014D 8D 0D 0F  STA $0F0D     |34 00 01 FD|000100|4
0150 60        RTS           |34 00 01 FF|000100|6
0038 20 15 01  JSR $0115     |34 00 01 FD|000100|6
0115 AD 02 0F  LDA $0F02     |09 00 01 FD|000100|4
0118 CD 00 0F  CMP $0F00     |09 00 01 FD|000111|4
011B D0 26     BNE $0143     |09 00 01 FD|000111|2
011D AD 03 0F  LDA $0F03     |3C 00 01 FD|000101|4
0120 4D 0B 0F  EOR $0F0B     |08 00 01 FD|000101|4
0123 29 80     AND #$80      |00 00 01 FD|000111|2
0125 D0 1C     BNE $0143     |00 00 01 FD|000111|2
0127 AD 03 0F  LDA $0F03     |3C 00 01 FD|000101|4
012A 4D 0C 0F  EOR $0F0C     |08 00 01 FD|000101|4
012D 29 40     AND #$40      |00 00 01 FD|000111|2
012F D0 12     BNE $0143     |00 00 01 FD|000111|2
0131 AD 03 0F  LDA $0F03     |3C 00 01 FD|000101|4
0134 4D 0D 0F  EOR $0F0D     |08 00 01 FD|000101|4
0137 29 02     AND #$02      |00 00 01 FD|000111|2
0139 D0 08     BNE $0143     |00 00 01 FD|000111|2
013B AD 03 0F  LDA $0F03     |3C 00 01 FD|000101|4
013E 4D 01 0F  EOR $0F01     |08 00 01 FD|000101|4
0141 29 01     AND #$01      |00 00 01 FD|000111|2
0143 60        RTS           |00 00 01 FF|000111|6
003B D0 1D     BNE $005A     |00 00 01 FF|000111|2
003D 20 AE 00  JSR $00AE     |00 00 01 FD|000111|6
00AE F8        SED           |00 00 01 FD|001111|2
00AF C0 01     CPY #$01      |00 00 01 FD|001111|2
00B1 AD 06 0F  LDA $0F06     |08 00 01 FD|001101|4
00B4 ED 09 0F  SBC $0F09     |08 00 01 FD|001101|4
00B7 8D 02 0F  STA $0F02     |08 00 01 FD|001101|4
00BA 08        PHP           |08 00 01 FC|001101|3
00BB 68        PLA           |3D 00 01 FD|001101|4
00BC 8D 03 0F  STA $0F03     |3D 00 01 FD|001101|4
00BF D8        CLD           |3D 00 01 FD|000101|2
00C0 C0 01     CPY #$01      |3D 00 01 FD|000111|2
00C2 AD 06 0F  LDA $0F06     |08 00 01 FD|000101|4
00C5 ED 09 0F  SBC $0F09     |08 00 01 FD|000101|4
00C8 8D 04 0F  STA $0F04     |08 00 01 FD|000101|4
00CB 08        PHP           |08 00 01 FC|000101|3
00CC 68        PLA           |35 00 01 FD|000101|4
00CD 8D 05 0F  STA $0F05     |35 00 01 FD|000101|4
00D0 60        RTS           |35 00 01 FF|000101|6
0040 20 51 01  JSR $0151     |35 00 01 FD|000101|6
0151 20 D1 00  JSR $00D1     |35 00 01 FB|000101|6
00D1 C0 01     CPY #$01      |35 00 01 FB|000111|2
00D3 AD 08 0F  LDA $0F08     |08 00 01 FB|000101|4
00D6 ED 0A 0F  SBC $0F0A     |08 00 01 FB|000101|4
00D9 A2 00     LDX #$00      |08 00 01 FB|000111|2
00DB B0 06     BCS $00E3     |08 00 01 FB|000111|3
00E3 0D 07 0F  ORA $0F07     |08 00 01 FB|000101|4
00E6 FD 0E 0F  SBC $0F0E,X   |08 00 01 FB|000101|4
00E9 B0 02     BCS $00ED     |08 00 01 FB|000101|3
00ED 8D 00 0F  STA $0F00     |08 00 01 FB|000101|4
00F0 60        RTS           |08 00 01 FD|000101|6
0154 AD 05 0F  LDA $0F05     |35 00 01 FD|000101|4
0157 8D 0B 0F  STA $0F0B     |35 00 01 FD|000101|4
015A 8D 0C 0F  STA $0F0C     |35 00 01 FD|000101|4
015D 8D 0D 0F  STA $0F0D     |35 00 01 FD|000101|4
0160 8D 01 0F  STA $0F01     |35 00 01 FD|000101|4
0163 60        RTS           |35 00 01 FF|000101|6
0043 20 15 01  JSR $0115     |35 00 01 FD|000101|6
0115 AD 02 0F  LDA $0F02     |08 00 01 FD|000101|4
0118 CD 00 0F  CMP $0F00     |08 00 01 FD|000111|4
011B D0 26     BNE $0143     |08 00 01 FD|000111|2
011D AD 03 0F  LDA $0F03     |3D 00 01 FD|000101|4
0120 4D 0B 0F  EOR $0F0B     |08 00 01 FD|000101|4
0123 29 80     AND #$80      |00 00 01 FD|000111|2
0125 D0 1C     BNE $0143     |00 00 01 FD|000111|2
0127 AD 03 0F  LDA $0F03     |3D 00 01 FD|000101|4
012A 4D 0C 0F  EOR $0F0C     |08 00 01 FD|000101|4
012D 29 40     AND #$40      |00 00 01 FD|000111|2
012F D0 12     BNE $0143     |00 00 01 FD|000111|2
0131 AD 03 0F  LDA $0F03     |3D 00 01 FD|000101|4
0134 4D 0D 0F  EOR $0F0D     |08 00 01 FD|000101|4
0137 29 02     AND #$02      |00 00 01 FD|000111|2
0139 D0 08     BNE $0143     |00 00 01 FD|000111|2
013B AD 03 0F  LDA $0F03     |3D 00 01 FD|000101|4
013E 4D 01 0F  EOR $0F01     |08 00 01 FD|000101|4
0141 29 01     AND #$01      |00 00 01 FD|000111|2
0143 60        RTS           |00 00 01 FF|000111|6
0046 D0 12     BNE $005A     |00 00 01 FF|000111|2
0048 EE 06 0F  INC $0F06     |00 00 01 FF|000101|6
004B D0 D5     BNE $0022     |00 00 01 FF|000101|3
0022 AD 06 0F  LDA $0F06     |09 00 01 FF|000101|4
0025 29 0F     AND #$0F      |09 00 01 FF|000101|2
0027 8D 08 0F  STA $0F08     |09 00 01 FF|000101|4
002A AD 06 0F  LDA $0F06     |09 00 01 FF|000101|4
002D 29 F0     AND #$F0      |00 00 01 FF|000111|2
002F 8D 07 0F  STA $0F07     |00 00 01 FF|000111|4
0032 20 5B 00  JSR $005B     |00 00 01 FD|000111|6
005B F8        SED           |00 00 01 FD|001111|2
005C C0 01     CPY #$01      |00 00 01 FD|001111|2
005E AD 06 0F  LDA $0F06     |09 00 01 FD|001101|4
0061 6D 09 0F  ADC $0F09     |10 00 01 FD|001100|4
0064 8D 02 0F  STA $0F02     |10 00 01 FD|001100|4
0067 08        PHP           |10 00 01 FC|001100|3
0068 68        PLA           |3C 00 01 FD|001100|4
0069 8D 03 0F  STA $0F03     |3C 00 01 FD|001100|4
006C D8        CLD           |3C 00 01 FD|000100|2
006D C0 01     CPY #$01      |3C 00 01 FD|000111|2
006F AD 06 0F  LDA $0F06     |09 00 01 FD|000101|4
0072 6D 09 0F  ADC $0F09     |0A 00 01 FD|000100|4
0075 8D 04 0F  STA $0F04     |0A 00 01 FD|000100|4
0078 08        PHP           |0A 00 01 FC|000100|3
0079 68        PLA           |34 00 01 FD|000100|4
007A 8D 05 0F  STA $0F05     |34 00 01 FD|000100|4
007D C0 01     CPY #$01      |34 00 01 FD|000111|2
007F AD 08 0F  LDA $0F08     |09 00 01 FD|000101|4
0082 6D 0A 0F  ADC $0F0A     |0A 00 01 FD|000100|4
0085 C9 0A     CMP #$0A      |0A 00 01 FD|000111|2
0087 A2 00     LDX #$00      |0A 00 01 FD|000111|2
0089 90 06     BCC $0091     |0A 00 01 FD|000111|2
008B E8        INX           |0A 01 01 FD|000101|2
008C 69 05     ADC #$05      |10 01 01 FD|000100|2
008E 29 0F     AND #$0F      |00 01 01 FD|000110|2
0090 38        SEC           |00 01 01 FD|000111|2
0091 0D 07 0F  ORA $0F07     |00 01 01 FD|000111|4
0094 7D 0E 0F  ADC $0F0E,X   |10 01 01 FD|000100|4
0097 08        PHP           |10 01 01 FC|000100|3
0098 B0 04     BCS $009E     |10 01 01 FC|000100|2
009A C9 A0     CMP #$A0      |10 01 01 FC|000100|2
009C 90 03     BCC $00A1     |10 01 01 FC|000100|3
00A1 8D 00 0F  STA $0F00     |10 01 01 FC|000100|4
00A4 08        PHP           |10 01 01 FB|000100|3
00A5 68        PLA           |34 01 01 FC|000100|4
00A6 8D 01 0F  STA $0F01     |34 01 01 FC|000100|4
00A9 68        PLA           |34 01 01 FD|000100|4
00AA 8D 0C 0F  STA $0F0C     |34 01 01 FD|000100|4
00AD 60        RTS           |34 01 01 FF|000100|6
0035 20 44 01  JSR $0144     |34 01 01 FD|000100|6
0144 AD 0C 0F  LDA $0F0C     |34 01 01 FD|000100|4
0147 8D 0B 0F  STA $0F0B     |34 01 01 FD|000100|4
014A AD 05 0F  LDA $0F05     |34 01 01 FD|000100|4
014D 8D 0D 0F  STA $0F0D     |34 01 01 FD|000100|4
0150 60        RTS           |34 01 01 FF|000100|6
0038 20 15 01  JSR $0115     |34 01 01 FD|000100|6
0115 AD 02 0F  LDA $0F02     |10 01 01 FD|000100|4
0118 CD 00 0F  CMP $0F00     |10 01 01 FD|000111|4
011B D0 26     BNE $0143     |10 01 01 FD|000111|2
011D AD 03 0F  LDA $0F03     |3C 01 01 FD|000101|4
0120 4D 0B 0F  EOR $0F0B     |08 01 01 FD|000101|4
0123 29 80     AND #$80      |00 01 01 FD|000111|2
0125 D0 1C     BNE $0143     |00 01 01 FD|000111|2
0127 AD 03 0F  LDA $0F03     |3C 01 01 FD|000101|4
012A 4D 0C 0F  EOR $0F0C     |08 01 01 FD|000101|4
012D 29 40     AND #$40      |00 01 01 FD|000111|2
012F D0 12     BNE $0143     |00 01 01 FD|000111|2
0131 AD 03 0F  LDA $0F03     |3C 01 01 FD|000101|4
0134 4D 0D 0F  EOR $0F0D     |08 01 01 FD|000101|4
0137 29 02     AND #$02      |00 01 01 FD|000111|2
0139 D0 08     BNE $0143     |00 01 01 FD|000111|2
013B AD 03 0F  LDA $0F03     |3C 01 01 FD|000101|4
013E 4D 01 0F  EOR $0F01     |08 01 01 FD|000101|4
0141 29 01     AND #$01      |00 01 01 FD|000111|2
0143 60        RTS           |00 01 01 FF|000111|6
003B D0 1D     BNE $005A     |00 01 01 FF|000111|2
003D 20 AE 00  JSR $00AE     |00 01 01 FD|000111|6
00AE F8        SED           |00 01 01 FD|001111|2
00AF C0 01     CPY #$01      |00 01 01 FD|001111|2
00B1 AD 06 0F  LDA $0F06     |09 01 01 FD|001101|4
00B4 ED 09 0F  SBC $0F09     |09 01 01 FD|001101|4
00B7 8D 02 0F  STA $0F02     |09 01 01 FD|001101|4
00BA 08        PHP           |09 01 01 FC|001101|3
00BB 68        PLA           |3D 01 01 FD|001101|4
00BC 8D 03 0F  STA $0F03     |3D 01 01 FD|001101|4
00BF D8        CLD           |3D 01 01 FD|000101|2
00C0 C0 01     CPY #$01      |3D 01 01 FD|000111|2
00C2 AD 06 0F  LDA $0F06     |09 01 01 FD|000101|4
00C5 ED 09 0F  SBC $0F09     |09 01 01 FD|000101|4
00C8 8D 04 0F  STA $0F04     |09 01 01 FD|000101|4
00CB 08        PHP           |09 01 01 FC|000101|3
00CC 68        PLA           |35 01 01 FD|000101|4
00CD 8D 05 0F  STA $0F05     |35 01 01 FD|000101|4
00D0 60        RTS           |35 01 01 FF|000101|6
0040 20 51 01  JSR $0151     |35 01 01 FD|000101|6
0151 20 D1 00  JSR $00D1     |35 01 01 FB|000101|6
00D1 C0 01     CPY #$01      |35 01 01 FB|000111|2
00D3 AD 08 0F  LDA $0F08     |09 01 01 FB|000101|4
00D6 ED 0A 0F  SBC $0F0A     |09 01 01 FB|000101|4
00D9 A2 00     LDX #$00      |09 00 01 FB|000111|2
00DB B0 06     BCS $00E3     |09 00 01 FB|000111|3
00E3 0D 07 0F  ORA $0F07     |09 00 01 FB|000101|4
00E6 FD 0E 0F  SBC $0F0E,X   |09 00 01 FB|000101|4
00E9 B0 02     BCS $00ED     |09 00 01 FB|000101|3
00ED 8D 00 0F  STA $0F00     |09 00 01 FB|000101|4
00F0 60        RTS           |09 00 01 FD|000101|6
0154 AD 05 0F  LDA $0F05     |35 00 01 FD|000101|4
0157 8D 0B 0F  STA $0F0B     |35 00 01 FD|000101|4
015A 8D 0C 0F  STA $0F0C     |35 00 01 FD|000101|4
015D 8D 0D 0F  STA $0F0D     |35 00 01 FD|000101|4
0160 8D 01 0F  STA $0F01     |35 00 01 FD|000101|4
0163 60        RTS           |35 00 01 FF|000101|6
0043 20 15 01  JSR $0115     |35 00 01 FD|000101|6
0115 AD 02 0F  LDA $0F02     |09 00 01 FD|000101|4
0118 CD 00 0F  CMP $0F00     |09 00 01 FD|000111|4
011B D0 26     BNE $0143     |09 00 01 FD|000111|2
011D AD 03 0F  LDA $0F03     |3D 00 01 FD|000101|4
0120 4D 0B 0F  EOR $0F0B     |08 00 01 FD|000101|4
0123 29 80     AND #$80      |00 00 01 FD|000111|2
0125 D0 1C     BNE $0143     |00 00 01 FD|000111|2
0127 AD 03 0F  LDA $0F03     |3D 00 01 FD|000101|4
012A 4D 0C 0F  EOR $0F0C     |08 00 01 FD|000101|4
012D 29 40     AND #$40      |00 00 01 FD|000111|2
012F D0 12     BNE $0143     |00 00 01 FD|000111|2
0131 AD 03 0F  LDA $0F03     |3D 00 01 FD|000101|4
0134 4D 0D 0F  EOR $0F0D     |08 00 01 FD|000101|4
0137 29 02     AND #$02      |00 00 01 FD|000111|2
0139 D0 08     BNE $0143     |00 00 01 FD|000111|2
013B AD 03 0F  LDA $0F03     |3D 00 01 FD|000101|4
013E 4D 01 0F  EOR $0F01     |08 00 01 FD|000101|4
0141 29 01     AND #$01      |00 00 01 FD|000111|2
0143 60        RTS           |00 00 01 FF|000111|6
0046 D0 12     BNE $005A     |00 00 01 FF|000111|2
0048 EE 06 0F  INC $0F06     |00 00 01 FF|000101|6
004B D0 D5     BNE $0022     |00 00 01 FF|000101|3
0022 AD 06 0F  LDA $0F06     |0A 00 01 FF|000101|4
0025 29 0F     AND #$0F      |0A 00 01 FF|000101|2
0027 8D 08 0F  STA $0F08     |0A 00 01 FF|000101|4
002A AD 06 0F  LDA $0F06     |0A 00 01 FF|000101|4
002D 29 F0     AND #$F0      |00 00 01 FF|000111|2
002F 8D 07 0F  STA $0F07     |00 00 01 FF|000111|4
0032 20 5B 00  JSR $005B     |00 00 01 FD|000111|6
005B F8        SED           |00 00 01 FD|001111|2
005C C0 01     CPY #$01      |00 00 01 FD|001111|2
005E AD 06 0F  LDA $0F06     |0A 00 01 FD|001101|4
0061 6D 09 0F  ADC $0F09     |11 00 01 FD|001100|4
0064 8D 02 0F  STA $0F02     |11 00 01 FD|001100|4
0067 08        PHP           |11 00 01 FC|001100|3
0068 68        PLA           |3C 00 01 FD|001100|4
0069 8D 03 0F  STA $0F03     |3C 00 01 FD|001100|4
006C D8        CLD           |3C 00 01 FD|000100|2
006D C0 01     CPY #$01      |3C 00 01 FD|000111|2
006F AD 06 0F  LDA $0F06     |0A 00 01 FD|000101|4
0072 6D 09 0F  ADC $0F09     |0B 00 01 FD|000100|4
0075 8D 04 0F  STA $0F04     |0B 00 01 FD|000100|4
0078 08        PHP           |0B 00 01 FC|000100|3
0079 68        PLA           |34 00 01 FD|000100|4
007A 8D 05 0F  STA $0F05     |34 00 01 FD|000100|4
007D C0 01     CPY #$01      |34 00 01 FD|000111|2
007F AD 08 0F  LDA $0F08     |0A 00 01 FD|000101|4
0082 6D 0A 0F  ADC $0F0A     |0B 00 01 FD|000100|4
0085 C9 0A     CMP #$0A      |0B 00 01 FD|000101|2
0087 A2 00     LDX #$00      |0B 00 01 FD|000111|2
0089 90 06     BCC $0091     |0B 00 01 FD|000111|2
008B E8        INX           |0B 01 01 FD|000101|2
008C 69 05     ADC #$05      |11 01 01 FD|000100|2
008E 29 0F     AND #$0F      |01 01 01 FD|000100|2
0090 38        SEC           |01 01 01 FD|000101|2
0091 0D 07 0F  ORA $0F07     |01 01 01 FD|000101|4
0094 7D 0E 0F  ADC $0F0E,X   |11 01 01 FD|000100|4
0097 08        PHP           |11 01 01 FC|000100|3
0098 B0 04     BCS $009E     |11 01 01 FC|000100|2
009A C9 A0     CMP #$A0      |11 01 01 FC|000100|2
009C 90 03     BCC $00A1     |11 01 01 FC|000100|3
00A1 8D 00 0F  STA $0F00     |11 01 01 FC|000100|4
00A4 08        PHP           |11 01 01 FB|000100|3
00A5 68        PLA           |34 01 01 FC|000100|4
00A6 8D 01 0F  STA $0F01     |34 01 01 FC|000100|4
00A9 68        PLA           |34 01 01 FD|000100|4
00AA 8D 0C 0F  STA $0F0C     |34 01 01 FD|000100|4
00AD 60        RTS           |34 01 01 FF|000100|6
0035 20 44 01  JSR $0144     |34 01 01 FD|000100|6
0144 AD 0C 0F  LDA $0F0C     |34 01 01 FD|000100|4
0147 8D 0B 0F  STA $0F0B     |34 01 01 FD|000100|4
014A AD 05 0F  LDA $0F05     |34 01 01 FD|000100|4
014D 8D 0D 0F  STA $0F0D     |34 01 01 FD|000100|4
0150 60        RTS           |34 01 01 FF|000100|6
0038 20 15 01  JSR $0115     |34 01 01 FD|000100|6
0115 AD 02 0F  LDA $0F02     |11 01 01 FD|000100|4
0118 CD 00 0F  CMP $0F00     |11 01 01 FD|000111|4
011B D0 26     BNE $0143     |11 01 01 FD|000111|2
011D AD 03 0F  LDA $0F03     |3C 01 01 FD|000101|4
0120 4D 0B 0F  EOR $0F0B     |08 01 01 FD|000101|4
0123 29 80     AND #$80      |00 01 01 FD|000111|2
0125 D0 1C     BNE $0143     |00 01 01 FD|000111|2
0127 AD 03 0F  LDA $0F03     |3C 01 01 FD|000101|4
012A 4D 0C 0F  EOR $0F0C     |08 01 01 FD|000101|4
012D 29 40     AND #$40      |00 01 01 FD|000111|2
012F D0 12     BNE $0143     |00 01 01 FD|000111|2
0131 AD 03 0F  LDA $0F03     |3C 01 01 FD|000101|4
0134 4D 0D 0F  EOR $0F0D     |08 01 01 FD|000101|4
0137 29 02     AND #$02      |00 01 01 FD|000111|2
0139 D0 08     BNE $0143     |00 01 01 FD|000111|2
013B AD 03 0F  LDA $0F03     |3C 01 01 FD|000101|4
013E 4D 01 0F  EOR $0F01     |08 01 01 FD|000101|4
0141 29 01     AND #$01      |00 01 01 FD|000111|2
0143 60        RTS           |00 01 01 FF|000111|6
003B D0 1D     BNE $005A     |00 01 01 FF|000111|2
003D 20 AE 00  JSR $00AE     |00 01 01 FD|000111|6
00AE F8        SED           |00 01 01 FD|001111|2
00AF C0 01     CPY #$01      |00 01 01 FD|001111|2
00B1 AD 06 0F  LDA $0F06     |0A 01 01 FD|001101|4
00B4 ED 09 0F  SBC $0F09     |00 01 01 FD|001101|4
00B7 8D 02 0F  STA $0F02     |00 01 01 FD|001101|4
00BA 08        PHP           |00 01 01 FC|001101|3
00BB 68        PLA           |3D 01 01 FD|001101|4
00BC 8D 03 0F  STA $0F03     |3D 01 01 FD|001101|4
00BF D8        CLD           |3D 01 01 FD|000101|2
00C0 C0 01     CPY #$01      |3D 01 01 FD|000111|2
00C2 AD 06 0F  LDA $0F06     |0A 01 01 FD|000101|4
00C5 ED 09 0F  SBC $0F09     |0A 01 01 FD|000101|4
00C8 8D 04 0F  STA $0F04     |0A 01 01 FD|000101|4
00CB 08        PHP           |0A 01 01 FC|000101|3
00CC 68        PLA           |35 01 01 FD|000101|4
00CD 8D 05 0F  STA $0F05     |35 01 01 FD|000101|4
00D0 60        RTS           |35 01 01 FF|000101|6
0040 20 51 01  JSR $0151     |35 01 01 FD|000101|6
0151 20 D1 00  JSR $00D1     |35 01 01 FB|000101|6
00D1 C0 01     CPY #$01      |35 01 01 FB|000111|2
00D3 AD 08 0F  LDA $0F08     |0A 01 01 FB|000101|4
00D6 ED 0A 0F  SBC $0F0A     |0A 01 01 FB|000101|4
00D9 A2 00     LDX #$00      |0A 00 01 FB|000111|2
00DB B0 06     BCS $00E3     |0A 00 01 FB|000111|3
00E3 0D 07 0F  ORA $0F07     |0A 00 01 FB|000101|4
00E6 FD 0E 0F  SBC $0F0E,X   |0A 00 01 FB|000101|4
00E9 B0 02     BCS $00ED     |0A 00 01 FB|000101|3
00ED 8D 00 0F  STA $0F00     |0A 00 01 FB|000101|4
00F0 60        RTS           |0A 00 01 FD|000101|6
0154 AD 05 0F  LDA $0F05     |35 00 01 FD|000101|4
0157 8D 0B 0F  STA $0F0B     |35 00 01 FD|000101|4
015A 8D 0C 0F  STA $0F0C     |35 00 01 FD|000101|4
015D 8D 0D 0F  STA $0F0D     |35 00 01 FD|000101|4
0160 8D 01 0F  STA $0F01     |35 00 01 FD|000101|4
0163 60        RTS           |35 00 01 FF|000101|6
0043 20 15 01  JSR $0115     |35 00 01 FD|000101|6
0115 AD 02 0F  LDA $0F02     |00 00 01 FD|000111|4
0118 CD 00 0F  CMP $0F00     |00 00 01 FD|100100|4
011B D0 26     BNE $0143     |00 00 01 FD|100100|3
0143 60        RTS           |00 00 01 FF|100100|6
0046 D0 12     BNE $005A     |00 00 01 FF|100100|3
005A 60        RTS           |00 00 01 01|100100|6
0D19 00        BRK           |00 00 01 FE|100100|7
* BRK at 0D19 => 0000
